                              1 ;--------------------------------------------------------
                              2 ; File Created by SDCC : free open source ANSI-C Compiler
                              3 ; Version 2.8.0 #5117 (Mar 23 2008) (MINGW32)
                              4 ; This file was generated Mon Feb 02 16:41:09 2009
                              5 ;--------------------------------------------------------
                              6 	.module app
                              7 	.optsdcc -mmcs51 --model-large
                              8 	
                              9 ;--------------------------------------------------------
                             10 ; Public variables in this module
                             11 ;--------------------------------------------------------
                             12 	.globl ___vector_11
                             13 	.globl ___vector_14
                             14 	.globl ___vector_3
                             15 	.globl ___vector_7
                             16 	.globl ___vector_2
                             17 	.globl ___vector_16
                             18 	.globl ___vector_0
                             19 	.globl ___vector_9
                             20 	.globl _UTX0IF
                             21 	.globl _UTX1IF
                             22 	.globl _T3IF
                             23 	.globl _T3CH0IF
                             24 	.globl _T1IE
                             25 	.globl _T3IE
                             26 	.globl _URX1IE
                             27 	.globl _URX0IE
                             28 	.globl _RFERRIE
                             29 	.globl _RFERRIF
                             30 	.globl _URX0IF
                             31 	.globl _URX1IF
                             32 	.globl _P1_4
                             33 	.globl _P1_3
                             34 	.globl _P1_2
                             35 	.globl _P0_7
                             36 	.globl _EA
                             37 	.globl _P1SEL
                             38 	.globl _P0SEL
                             39 	.globl _P1_DIR
                             40 	.globl _P0_DIR
                             41 	.globl _U1GCR
                             42 	.globl _U1UCR
                             43 	.globl _U1BAUD
                             44 	.globl _U1DBUF
                             45 	.globl _U1CSR
                             46 	.globl _PERCFG
                             47 	.globl _RFIF
                             48 	.globl _T1CCTL2
                             49 	.globl _T1CCTL1
                             50 	.globl _T1CCTL0
                             51 	.globl _T1CTL
                             52 	.globl _T1CNTH
                             53 	.globl _T1CNTL
                             54 	.globl _RFST
                             55 	.globl _T1CC0H
                             56 	.globl _T1CC0L
                             57 	.globl _RFD
                             58 	.globl _TIMIF
                             59 	.globl _T3CC1
                             60 	.globl _T3CCTL1
                             61 	.globl _T3CC0
                             62 	.globl _T3CCTL0
                             63 	.globl _T3CTL
                             64 	.globl _T3CNT
                             65 	.globl _CLKCON
                             66 	.globl _U0GCR
                             67 	.globl _U0UCR
                             68 	.globl _U0BAUD
                             69 	.globl _U0BUF
                             70 	.globl _SLEEP
                             71 	.globl _S1CON
                             72 	.globl _IEN2
                             73 	.globl _RFIM
                             74 	.globl _U0CSR
                             75 	.globl _AMQueueImplP__0__current
                             76 	.globl _SCSuartDBGM__buff_end
                             77 	.globl _SCSuartDBGM__buff_start
                             78 	.globl _SCSuartDBGM__state
                             79 	.globl _TOS_NODE_ID
                             80 	.globl _crcByte_PARM_2
                             81 	.globl _AMQueueEntryP__0__AMSend__send_PARM_3
                             82 	.globl _AMQueueEntryP__0__AMSend__send_PARM_2
                             83 	.globl _SCS_VTimerP__0__startTimer_PARM_3
                             84 	.globl _SCS_VTimerP__0__startTimer_PARM_2
                             85 	.globl _CC2430ActiveMessageM__Packet__getPayload_PARM_2
                             86 	.globl _AMQueueImplP__0__AMSend__sendDone_PARM_2
                             87 	.globl _CC2430ActiveMessageM__AMSend__send_PARM_4
                             88 	.globl _CC2430ActiveMessageM__AMSend__send_PARM_3
                             89 	.globl _CC2430ActiveMessageM__AMSend__send_PARM_2
                             90 	.globl _SCSuartDBGM__SCSuartDBG__UARTSend_PARM_2
                             91 	.globl _SerialActiveMessageP__0__UartRecvMessag
                             92 	.globl _SerialActiveMessageP__0__SendProcessing
                             93 	.globl _SerialActiveMessageP__0__SendBuff
                             94 	.globl _SerialActiveMessageP__0__RecvAckType
                             95 	.globl _SerialActiveMessageP__0__RecvBuff
                             96 	.globl _SerialActiveMessageP__0__Escape_Flag
                             97 	.globl _SerialActiveMessageP__0__Rindex
                             98 	.globl _SerialActiveMessageP__0__NowReceiving
                             99 	.globl _AMQueueImplP__0__queue
                            100 	.globl _SCSuartDBGM__str_buff
                            101 	.globl _BusyWaitMicroC__MicroValue_
                            102 	.globl _HAL_CC2430ControlM__WaitACK_Flag
                            103 	.globl _HAL_CC2430ControlM__transmitInProgress
                            104 	.globl _HAL_CC2430ControlM__SendDoneError
                            105 	.globl _HAL_CC2430ControlM__currentChannel
                            106 	.globl _HAL_CC2430ControlM__currentPower
                            107 	.globl _HAL_CC2430ControlM__receivedPacket
                            108 	.globl _HAL_CC2430ControlM__transmitPacket
                            109 	.globl _HAL_CC2430ControlM__transmitPacketPtr
                            110 	.globl _CC2430ActiveMessageM__TX_Ready_Msg
                            111 	.globl _CC2430ActiveMessageM__AckEnable
                            112 	.globl _CC2430ActiveMessageM__NumReTX
                            113 	.globl _CC2430ActiveMessageM__MAC_Seq
                            114 	.globl _CC2430ActiveMessageM__RF_Status
                            115 	.globl _RandomC__randValue16
                            116 	.globl _RandomC__Rseed
                            117 	.globl _RandomC__RSeq
                            118 	.globl _FloodingM__RTable
                            119 	.globl _FloodingM__mySequence
                            120 	.globl _FloodingM__RTable_Index
                            121 	.globl _FloodingM__Forward_Buff_Index
                            122 	.globl _FloodingM__Next_Addr
                            123 	.globl _FloodingM__NWKF
                            124 	.globl _FloodingM__ForwardMsg
                            125 	.globl _FloodingM__RecvMsg
                            126 	.globl _FloodingM__SendMsg
                            127 	.globl _SCS_VTimerP__0__mTimerList
                            128 	.globl _SCS_VTimerP__0__queue
                            129 	.globl _SCS_VTimerP__0__queue_size
                            130 	.globl _SCS_VTimerP__0__queue_tail
                            131 	.globl _SCS_VTimerP__0__queue_head
                            132 	.globl _SCS_VTimerP__0__mInterval
                            133 	.globl _Adhoc_APPM__APP_Seq
                            134 	.globl _Adhoc_APPM__Serial_MSG
                            135 	.globl _Adhoc_APPM__RF_MSG
                            136 	.globl _SchedulerBasicP__m_next
                            137 	.globl _SchedulerBasicP__m_tail
                            138 	.globl _SchedulerBasicP__m_head
                            139 	.globl _main
                            140 ;--------------------------------------------------------
                            141 ; special function registers
                            142 ;--------------------------------------------------------
                            143 	.area RSEG    (DATA)
                    0086    144 _U0CSR	=	0x0086
                    0091    145 _RFIM	=	0x0091
                    009A    146 _IEN2	=	0x009a
                    009B    147 _S1CON	=	0x009b
                    00BE    148 _SLEEP	=	0x00be
                    00C1    149 _U0BUF	=	0x00c1
                    00C2    150 _U0BAUD	=	0x00c2
                    00C4    151 _U0UCR	=	0x00c4
                    00C5    152 _U0GCR	=	0x00c5
                    00C6    153 _CLKCON	=	0x00c6
                    00CA    154 _T3CNT	=	0x00ca
                    00CB    155 _T3CTL	=	0x00cb
                    00CC    156 _T3CCTL0	=	0x00cc
                    00CD    157 _T3CC0	=	0x00cd
                    00CE    158 _T3CCTL1	=	0x00ce
                    00CF    159 _T3CC1	=	0x00cf
                    00D8    160 _TIMIF	=	0x00d8
                    00D9    161 _RFD	=	0x00d9
                    00DA    162 _T1CC0L	=	0x00da
                    00DB    163 _T1CC0H	=	0x00db
                    00E1    164 _RFST	=	0x00e1
                    00E2    165 _T1CNTL	=	0x00e2
                    00E3    166 _T1CNTH	=	0x00e3
                    00E4    167 _T1CTL	=	0x00e4
                    00E5    168 _T1CCTL0	=	0x00e5
                    00E6    169 _T1CCTL1	=	0x00e6
                    00E7    170 _T1CCTL2	=	0x00e7
                    00E9    171 _RFIF	=	0x00e9
                    00F1    172 _PERCFG	=	0x00f1
                    00F8    173 _U1CSR	=	0x00f8
                    00F9    174 _U1DBUF	=	0x00f9
                    00FA    175 _U1BAUD	=	0x00fa
                    00FB    176 _U1UCR	=	0x00fb
                    00FC    177 _U1GCR	=	0x00fc
                    00FD    178 _P0_DIR	=	0x00fd
                    00FE    179 _P1_DIR	=	0x00fe
                    00F3    180 _P0SEL	=	0x00f3
                    00F4    181 _P1SEL	=	0x00f4
                            182 ;--------------------------------------------------------
                            183 ; special function bits
                            184 ;--------------------------------------------------------
                            185 	.area RSEG    (DATA)
                    00AF    186 _EA	=	0x00af
                    0087    187 _P0_7	=	0x0087
                    0092    188 _P1_2	=	0x0092
                    0093    189 _P1_3	=	0x0093
                    0094    190 _P1_4	=	0x0094
                    008F    191 _URX1IF	=	0x008f
                    008B    192 _URX0IF	=	0x008b
                    0089    193 _RFERRIF	=	0x0089
                    00A8    194 _RFERRIE	=	0x00a8
                    00AA    195 _URX0IE	=	0x00aa
                    00AB    196 _URX1IE	=	0x00ab
                    00BB    197 _T3IE	=	0x00bb
                    00B9    198 _T1IE	=	0x00b9
                    00D9    199 _T3CH0IF	=	0x00d9
                    00C3    200 _T3IF	=	0x00c3
                    00EA    201 _UTX1IF	=	0x00ea
                    00E9    202 _UTX0IF	=	0x00e9
                            203 ;--------------------------------------------------------
                            204 ; overlayable register banks
                            205 ;--------------------------------------------------------
                            206 	.area REG_BANK_0	(REL,OVR,DATA)
   0000                     207 	.ds 8
                            208 ;--------------------------------------------------------
                            209 ; overlayable bit register bank
                            210 ;--------------------------------------------------------
                            211 	.area BIT_BANK	(REL,OVR,DATA)
   0000                     212 bits:
   0000                     213 	.ds 1
                    8000    214 	b0 = bits[0]
                    8100    215 	b1 = bits[1]
                    8200    216 	b2 = bits[2]
                    8300    217 	b3 = bits[3]
                    8400    218 	b4 = bits[4]
                    8500    219 	b5 = bits[5]
                    8600    220 	b6 = bits[6]
                    8700    221 	b7 = bits[7]
                            222 ;--------------------------------------------------------
                            223 ; internal ram data
                            224 ;--------------------------------------------------------
                            225 	.area DSEG    (DATA)
   0000                     226 _SchedulerBasicP__TaskBasic__runTask_sloc0_1_0:
   0000                     227 	.ds 4
   0004                     228 _CC2430ActiveMessageM__AMSend__send_sloc0_1_0:
   0004                     229 	.ds 3
   0007                     230 _CC2430ActiveMessageM__AMSend__send_sloc1_1_0:
   0007                     231 	.ds 2
   0009                     232 _SCS_VTimerP__0__startTimer_sloc0_1_0:
   0009                     233 	.ds 2
   000B                     234 _SCS_VTimerP__0__startTimer_sloc1_1_0:
   000B                     235 	.ds 2
   000D                     236 _AMQueueEntryP__0__AMSend__send_sloc0_1_0:
   000D                     237 	.ds 3
   0010                     238 _AMQueueEntryP__0__AMSend__send_sloc1_1_0:
   0010                     239 	.ds 3
                            240 ;--------------------------------------------------------
                            241 ; overlayable items in internal ram 
                            242 ;--------------------------------------------------------
                            243 	.area	OSEG    (OVR,DATA)
   0000                     244 _SCSuartDBGM__SCSuartDBG__UARTSend_sloc0_1_0::
   0000                     245 	.ds 2
   0002                     246 _SCSuartDBGM__SCSuartDBG__UARTSend_sloc1_1_0::
   0002                     247 	.ds 3
                            248 ;--------------------------------------------------------
                            249 ; Stack segment in internal ram 
                            250 ;--------------------------------------------------------
                            251 	.area	SSEG	(DATA)
   0000                     252 __start__stack:
   0000                     253 	.ds	1
                            254 
                            255 ;--------------------------------------------------------
                            256 ; indirectly addressable internal ram data
                            257 ;--------------------------------------------------------
                            258 	.area ISEG    (DATA)
                            259 ;--------------------------------------------------------
                            260 ; absolute internal ram data
                            261 ;--------------------------------------------------------
                            262 	.area IABS    (ABS,DATA)
                            263 	.area IABS    (ABS,DATA)
                            264 ;--------------------------------------------------------
                            265 ; bit data
                            266 ;--------------------------------------------------------
                            267 	.area BSEG    (BIT)
                            268 ;--------------------------------------------------------
                            269 ; paged external ram data
                            270 ;--------------------------------------------------------
                            271 	.area PSEG    (PAG,XDATA)
                            272 ;--------------------------------------------------------
                            273 ; external ram data
                            274 ;--------------------------------------------------------
                            275 	.area XSEG    (XDATA)
   0000                     276 _SchedulerBasicP__m_head::
   0000                     277 	.ds 1
   0001                     278 _SchedulerBasicP__m_tail::
   0001                     279 	.ds 1
   0002                     280 _SchedulerBasicP__m_next::
   0002                     281 	.ds 16
   0012                     282 _Adhoc_APPM__RF_MSG::
   0012                     283 	.ds 48
   0042                     284 _Adhoc_APPM__Serial_MSG::
   0042                     285 	.ds 48
   0072                     286 _Adhoc_APPM__APP_Seq::
   0072                     287 	.ds 2
   0074                     288 _SCS_VTimerP__0__mInterval::
   0074                     289 	.ds 1
   0075                     290 _SCS_VTimerP__0__queue_head::
   0075                     291 	.ds 1
   0076                     292 _SCS_VTimerP__0__queue_tail::
   0076                     293 	.ds 1
   0077                     294 _SCS_VTimerP__0__queue_size::
   0077                     295 	.ds 1
   0078                     296 _SCS_VTimerP__0__queue::
   0078                     297 	.ds 4
   007C                     298 _SCS_VTimerP__0__mTimerList::
   007C                     299 	.ds 36
   00A0                     300 _FloodingM__SendMsg::
   00A0                     301 	.ds 48
   00D0                     302 _FloodingM__RecvMsg::
   00D0                     303 	.ds 48
   0100                     304 _FloodingM__ForwardMsg::
   0100                     305 	.ds 240
   01F0                     306 _FloodingM__NWKF::
   01F0                     307 	.ds 24
   0208                     308 _FloodingM__Next_Addr::
   0208                     309 	.ds 2
   020A                     310 _FloodingM__Forward_Buff_Index::
   020A                     311 	.ds 1
   020B                     312 _FloodingM__RTable_Index::
   020B                     313 	.ds 1
   020C                     314 _FloodingM__mySequence::
   020C                     315 	.ds 1
   020D                     316 _FloodingM__RTable::
   020D                     317 	.ds 100
   0271                     318 _RandomC__RSeq::
   0271                     319 	.ds 1
   0272                     320 _RandomC__Rseed::
   0272                     321 	.ds 2
   0274                     322 _RandomC__randValue16::
   0274                     323 	.ds 2
   0276                     324 _CC2430ActiveMessageM__RF_Status::
   0276                     325 	.ds 1
   0277                     326 _CC2430ActiveMessageM__MAC_Seq::
   0277                     327 	.ds 1
   0278                     328 _CC2430ActiveMessageM__NumReTX::
   0278                     329 	.ds 1
   0279                     330 _CC2430ActiveMessageM__AckEnable::
   0279                     331 	.ds 1
   027A                     332 _CC2430ActiveMessageM__TX_Ready_Msg::
   027A                     333 	.ds 3
   027D                     334 _HAL_CC2430ControlM__transmitPacketPtr::
   027D                     335 	.ds 3
   0280                     336 _HAL_CC2430ControlM__transmitPacket::
   0280                     337 	.ds 128
   0300                     338 _HAL_CC2430ControlM__receivedPacket::
   0300                     339 	.ds 128
   0380                     340 _HAL_CC2430ControlM__currentPower::
   0380                     341 	.ds 1
   0381                     342 _HAL_CC2430ControlM__currentChannel::
   0381                     343 	.ds 1
   0382                     344 _HAL_CC2430ControlM__SendDoneError::
   0382                     345 	.ds 1
   0383                     346 _HAL_CC2430ControlM__transmitInProgress::
   0383                     347 	.ds 1
   0384                     348 _HAL_CC2430ControlM__WaitACK_Flag::
   0384                     349 	.ds 1
   0385                     350 _BusyWaitMicroC__MicroValue_::
   0385                     351 	.ds 1
   0386                     352 _SCSuartDBGM__str_buff::
   0386                     353 	.ds 127
   0405                     354 _AMQueueImplP__0__queue::
   0405                     355 	.ds 3
   0408                     356 _SerialActiveMessageP__0__NowReceiving::
   0408                     357 	.ds 1
   0409                     358 _SerialActiveMessageP__0__Rindex::
   0409                     359 	.ds 1
   040A                     360 _SerialActiveMessageP__0__Escape_Flag::
   040A                     361 	.ds 1
   040B                     362 _SerialActiveMessageP__0__RecvBuff::
   040B                     363 	.ds 127
   048A                     364 _SerialActiveMessageP__0__RecvAckType::
   048A                     365 	.ds 1
   048B                     366 _SerialActiveMessageP__0__SendBuff::
   048B                     367 	.ds 127
   050A                     368 _SerialActiveMessageP__0__SendProcessing::
   050A                     369 	.ds 1
   050B                     370 _SerialActiveMessageP__0__UartRecvMessag::
   050B                     371 	.ds 48
   053B                     372 _main__cil_inline_tmp_1656_1_1:
   053B                     373 	.ds 2
   053D                     374 _main__cil_inline_tmp_1718_1_1:
   053D                     375 	.ds 1
   053E                     376 _SchedulerBasicP__Scheduler__runNextTask__cil_inline_tmp_1721_1_1:
   053E                     377 	.ds 1
   053F                     378 _SchedulerBasicP__TaskBasic__runTask_arg_0x1a420d78_1_1:
   053F                     379 	.ds 1
   0540                     380 _SchedulerBasicP__TaskBasic__runTask__cil_inline_tmp_1728_1_1:
   0540                     381 	.ds 1
   0541                     382 _SchedulerBasicP__TaskBasic__runTask__cil_inline_tmp_1737_1_1:
   0541                     383 	.ds 1
   0542                     384 _SchedulerBasicP__TaskBasic__runTask__cil_inline_tmp_1764_1_1:
   0542                     385 	.ds 3
   0545                     386 _SchedulerBasicP__TaskBasic__runTask__cil_inline_tmp_1799_1_1:
   0545                     387 	.ds 1
   0546                     388 _SchedulerBasicP__TaskBasic__runTask__cil_inline_tmp_1803_1_1:
   0546                     389 	.ds 2
   0548                     390 _SchedulerBasicP__TaskBasic__runTask__cil_inline_tmp_1807_1_1:
   0548                     391 	.ds 1
   0549                     392 _SchedulerBasicP__TaskBasic__runTask__cil_inline_tmp_1808_1_1:
   0549                     393 	.ds 1
   054A                     394 _SchedulerBasicP__TaskBasic__runTask__cil_inline_tmp_1809_1_1:
   054A                     395 	.ds 1
   054B                     396 _SchedulerBasicP__TaskBasic__runTask__cil_inline_tmp_1810_1_1:
   054B                     397 	.ds 1
   054C                     398 _SchedulerBasicP__TaskBasic__runTask__cil_inline_tmp_1811_1_1:
   054C                     399 	.ds 1
   054D                     400 _SchedulerBasicP__TaskBasic__runTask__cil_inline_tmp_1812_1_1:
   054D                     401 	.ds 1
   054E                     402 _SchedulerBasicP__TaskBasic__runTask__cil_inline_tmp_1813_1_1:
   054E                     403 	.ds 1
   054F                     404 _SchedulerBasicP__TaskBasic__runTask__cil_inline_tmp_1814_1_1:
   054F                     405 	.ds 1
   0550                     406 _SchedulerBasicP__TaskBasic__runTask__cil_inline_tmp_1819_1_1:
   0550                     407 	.ds 2
   0552                     408 _SchedulerBasicP__TaskBasic__runTask__cil_inline_tmp_1835_1_1:
   0552                     409 	.ds 1
   0553                     410 _SchedulerBasicP__TaskBasic__runTask__cil_inline_tmp_1857_1_1:
   0553                     411 	.ds 3
   0556                     412 _SchedulerBasicP__TaskBasic__runTask__cil_inline_tmp_1870_1_1:
   0556                     413 	.ds 2
   0558                     414 _SchedulerBasicP__TaskBasic__runTask__cil_inline_tmp_1893_1_1:
   0558                     415 	.ds 24
   0570                     416 _SchedulerBasicP__TaskBasic__runTask__cil_inline_tmp_1980_1_1:
   0570                     417 	.ds 1
   0571                     418 _SchedulerBasicP__TaskBasic__runTask__cil_inline_tmp_2032_1_1:
   0571                     419 	.ds 6
   0577                     420 _SCSuartDBGM__SCSuartDBG__UARTSend_PARM_2:
   0577                     421 	.ds 1
   0578                     422 _SCSuartDBGM__SCSuartDBG__UARTSend__data_1_1:
   0578                     423 	.ds 3
   057B                     424 _AMQueueImplP__0__tryToSend__cil_inline_tmp_2056_1_1:
   057B                     425 	.ds 1
   057C                     426 _CC2430ActiveMessageM__AMSend__send_PARM_2:
   057C                     427 	.ds 2
   057E                     428 _CC2430ActiveMessageM__AMSend__send_PARM_3:
   057E                     429 	.ds 3
   0581                     430 _CC2430ActiveMessageM__AMSend__send_PARM_4:
   0581                     431 	.ds 1
   0582                     432 _CC2430ActiveMessageM__AMSend__send_id_1_1:
   0582                     433 	.ds 1
   0583                     434 _CC2430ActiveMessageM__AMSend__send_tmp_1_1:
   0583                     435 	.ds 1
   0584                     436 _SchedulerBasicP__TaskBasic__postTask_id_1_1:
   0584                     437 	.ds 1
   0585                     438 _SchedulerBasicP__TaskBasic__postTask_tmp___1_1_1:
   0585                     439 	.ds 2
   0587                     440 _SchedulerBasicP__TaskBasic__postTask__cil_inline_tmp_2087_1_1:
   0587                     441 	.ds 1
   0588                     442 _SchedulerBasicP__TaskBasic__postTask__cil_inline_tmp_2092_1_1:
   0588                     443 	.ds 2
   058A                     444 _AMQueueImplP__0__AMSend__sendDone_PARM_2:
   058A                     445 	.ds 1
   058B                     446 _AMQueueImplP__0__AMSend__sendDone_msg_1_1:
   058B                     447 	.ds 3
   058E                     448 _AMQueueImplP__0__AMSend__sendDone_last_1_1:
   058E                     449 	.ds 1
   058F                     450 _CC2430ActiveMessageM__Packet__getPayload_PARM_2:
   058F                     451 	.ds 3
   0592                     452 _CC2430ActiveMessageM__Packet__getPayload_msg_1_1:
   0592                     453 	.ds 3
   0595                     454 _FloodingM__isRecvPrevious_msg_1_1:
   0595                     455 	.ds 3
   0598                     456 _FloodingM__isRecvPrevious_pack_1_1:
   0598                     457 	.ds 24
   05B0                     458 _FloodingM__isRecvPrevious_return_status_1_1:
   05B0                     459 	.ds 1
   05B1                     460 _FloodingM__insertMSGtoRTable_msg_1_1:
   05B1                     461 	.ds 3
   05B4                     462 _FloodingM__insertMSGtoRTable_pack_1_1:
   05B4                     463 	.ds 24
   05CC                     464 _SCS_VTimerP__0__startTimer_PARM_2:
   05CC                     465 	.ds 4
   05D0                     466 _SCS_VTimerP__0__startTimer_PARM_3:
   05D0                     467 	.ds 1
   05D1                     468 _SCS_VTimerP__0__startTimer_id_1_1:
   05D1                     469 	.ds 1
   05D2                     470 _SCS_VTimerP__0__startTimer__cil_inline_tmp_2165_1_1:
   05D2                     471 	.ds 2
   05D4                     472 _Adhoc_APPM__Timer__fired_APP_M_1_1:
   05D4                     473 	.ds 12
   05E0                     474 _Adhoc_APPM__Timer__fired_tmp_1_1:
   05E0                     475 	.ds 2
   05E2                     476 _Adhoc_APPM__Timer__fired__cil_inline_tmp_2184_1_1:
   05E2                     477 	.ds 24
   05FA                     478 _FloodingM__SendFromAPP__getPayload_msg_1_1:
   05FA                     479 	.ds 3
   05FD                     480 _AMQueueEntryP__0__AMSend__send_PARM_2:
   05FD                     481 	.ds 3
   0600                     482 _AMQueueEntryP__0__AMSend__send_PARM_3:
   0600                     483 	.ds 1
   0601                     484 _AMQueueEntryP__0__AMSend__send_dest_1_1:
   0601                     485 	.ds 2
   0603                     486 _AMQueueEntryP__0__AMSend__send__cil_inline_tmp_2270_1_1:
   0603                     487 	.ds 1
   0604                     488 _HplSCS_Clock_Timer1P__Alarm__start_dt_1_1:
   0604                     489 	.ds 1
   0605                     490 _HplSCS_Clock_Timer1P__Alarm__start_r_1_1:
   0605                     491 	.ds 2
   0607                     492 _CC2430ActiveMessageM__CC2430_TX_RX__sendPacketDone_err_1_1:
   0607                     493 	.ds 1
   0608                     494 _RandomC__Random__rand16_tmp_1_1:
   0608                     495 	.ds 1
   0609                     496 _crcByte_PARM_2:
   0609                     497 	.ds 1
   060A                     498 _crcByte_crc_1_1:
   060A                     499 	.ds 2
   060C                     500 _RandomC__SeedInit__init_param_1_1:
   060C                     501 	.ds 2
   060E                     502 ___vector_2__cil_inline_tmp_2326_1_1:
   060E                     503 	.ds 1
   060F                     504 ___vector_2__cil_inline_tmp_2332_1_1:
   060F                     505 	.ds 1
   0610                     506 ___vector_2__cil_inline_tmp_2333_1_1:
   0610                     507 	.ds 1
   0611                     508 ___vector_2__cil_inline_tmp_2334_1_1:
   0611                     509 	.ds 1
   0612                     510 ___vector_2__cil_inline_tmp_2335_1_1:
   0612                     511 	.ds 1
                            512 ;--------------------------------------------------------
                            513 ; absolute external ram data
                            514 ;--------------------------------------------------------
                            515 	.area XABS    (ABS,XDATA)
                            516 ;--------------------------------------------------------
                            517 ; external initialized ram data
                            518 ;--------------------------------------------------------
                            519 	.area XISEG   (XDATA)
   0000                     520 _TOS_NODE_ID::
   0000                     521 	.ds 2
   0002                     522 _SCSuartDBGM__state::
   0002                     523 	.ds 1
   0003                     524 _SCSuartDBGM__buff_start::
   0003                     525 	.ds 2
   0005                     526 _SCSuartDBGM__buff_end::
   0005                     527 	.ds 2
   0007                     528 _AMQueueImplP__0__current::
   0007                     529 	.ds 1
                            530 	.area HOME    (CODE)
                            531 	.area GSINIT0 (CODE)
                            532 	.area GSINIT1 (CODE)
                            533 	.area GSINIT2 (CODE)
                            534 	.area GSINIT3 (CODE)
                            535 	.area GSINIT4 (CODE)
                            536 	.area GSINIT5 (CODE)
                            537 	.area GSINIT  (CODE)
                            538 	.area GSFINAL (CODE)
                            539 	.area CSEG    (CODE)
                            540 ;--------------------------------------------------------
                            541 ; interrupt vector 
                            542 ;--------------------------------------------------------
                            543 	.area HOME    (CODE)
   0000                     544 __interrupt_vect:
   0000 02s00r00            545 	ljmp	__sdcc_gsinit_startup
   0003 02s1DrA4            546 	ljmp	___vector_0
   0006                     547 	.ds	5
   000B 32                  548 	reti
   000C                     549 	.ds	7
   0013 02s1Er71            550 	ljmp	___vector_2
   0016                     551 	.ds	5
   001B 02s21r22            552 	ljmp	___vector_3
   001E                     553 	.ds	5
   0023 32                  554 	reti
   0024                     555 	.ds	7
   002B 32                  556 	reti
   002C                     557 	.ds	7
   0033 32                  558 	reti
   0034                     559 	.ds	7
   003B 02s20r5C            560 	ljmp	___vector_7
   003E                     561 	.ds	5
   0043 32                  562 	reti
   0044                     563 	.ds	7
   004B 02s1Dr2A            564 	ljmp	___vector_9
   004E                     565 	.ds	5
   0053 32                  566 	reti
   0054                     567 	.ds	7
   005B 02s21r42            568 	ljmp	___vector_11
   005E                     569 	.ds	5
   0063 32                  570 	reti
   0064                     571 	.ds	7
   006B 32                  572 	reti
   006C                     573 	.ds	7
   0073 02s21r2B            574 	ljmp	___vector_14
   0076                     575 	.ds	5
   007B 32                  576 	reti
   007C                     577 	.ds	7
   0083 02s1DrCB            578 	ljmp	___vector_16
                            579 ;--------------------------------------------------------
                            580 ; global & static initialisations
                            581 ;--------------------------------------------------------
                            582 	.area HOME    (CODE)
                            583 	.area GSINIT  (CODE)
                            584 	.area GSFINAL (CODE)
                            585 	.area GSINIT  (CODE)
                            586 	.globl __sdcc_gsinit_startup
                            587 	.globl __sdcc_program_startup
                            588 	.globl __start__stack
                            589 	.globl __mcs51_genXINIT
                            590 	.globl __mcs51_genXRAMCLEAR
                            591 	.globl __mcs51_genRAMCLEAR
                            592 	.area GSFINAL (CODE)
   0000 02s00r86            593 	ljmp	__sdcc_program_startup
                            594 ;--------------------------------------------------------
                            595 ; Home
                            596 ;--------------------------------------------------------
                            597 	.area HOME    (CODE)
                            598 	.area HOME    (CODE)
   0086                     599 __sdcc_program_startup:
   0086 12s00r00            600 	lcall	_main
                            601 ;	return from main will lock up
   0089 80 FE               602 	sjmp .
                            603 ;--------------------------------------------------------
                            604 ; code
                            605 ;--------------------------------------------------------
                            606 	.area CSEG    (CODE)
                            607 ;------------------------------------------------------------
                            608 ;Allocation info for local variables in function 'main'
                            609 ;------------------------------------------------------------
                            610 ;_cil_inline_tmp_1613      Allocated with name '_main__cil_inline_tmp_1613_1_1'
                            611 ;_cil_inline_tmp_1614      Allocated with name '_main__cil_inline_tmp_1614_1_1'
                            612 ;_cil_inline_tmp_1623      Allocated with name '_main__cil_inline_tmp_1623_1_1'
                            613 ;_cil_inline_tmp_1636      Allocated with name '_main__cil_inline_tmp_1636_1_1'
                            614 ;_cil_inline_tmp_1638      Allocated with name '_main__cil_inline_tmp_1638_1_1'
                            615 ;_cil_inline_tmp_1640      Allocated with name '_main__cil_inline_tmp_1640_1_1'
                            616 ;_cil_inline_tmp_1651      Allocated with name '_main__cil_inline_tmp_1651_1_1'
                            617 ;_cil_inline_tmp_1656      Allocated with name '_main__cil_inline_tmp_1656_1_1'
                            618 ;_cil_inline_tmp_1663      Allocated with name '_main__cil_inline_tmp_1663_1_1'
                            619 ;_cil_inline_tmp_1668      Allocated with name '_main__cil_inline_tmp_1668_1_1'
                            620 ;_cil_inline_tmp_1673      Allocated with name '_main__cil_inline_tmp_1673_1_1'
                            621 ;_cil_inline_tmp_1676      Allocated with name '_main__cil_inline_tmp_1676_1_1'
                            622 ;_cil_inline_tmp_1678      Allocated with name '_main__cil_inline_tmp_1678_1_1'
                            623 ;_cil_inline_tmp_1692      Allocated with name '_main__cil_inline_tmp_1692_1_1'
                            624 ;_cil_inline_tmp_1695      Allocated with name '_main__cil_inline_tmp_1695_1_1'
                            625 ;_cil_inline_tmp_1717      Allocated with name '_main__cil_inline_tmp_1717_1_1'
                            626 ;_cil_inline_tmp_1718      Allocated with name '_main__cil_inline_tmp_1718_1_1'
                            627 ;_cil_inline_tmp_1719      Allocated with name '_main__cil_inline_tmp_1719_1_1'
                            628 ;------------------------------------------------------------
                            629 ;	-----------------------------------------
                            630 ;	 function main
                            631 ;	-----------------------------------------
   0000                     632 _main:
                    0002    633 	ar2 = 0x02
                    0003    634 	ar3 = 0x03
                    0004    635 	ar4 = 0x04
                    0005    636 	ar5 = 0x05
                    0006    637 	ar6 = 0x06
                    0007    638 	ar7 = 0x07
                    0000    639 	ar0 = 0x00
                    0001    640 	ar1 = 0x01
   0000 A2 AF               641 	mov	c,_EA
   0002 E4                  642 	clr	a
   0003 33                  643 	rlc	a
   0004 FA                  644 	mov	r2,a
   0005 C2 AF               645 	clr	_EA
   0007 7B 00               646 	mov	r3,#0x00
   0009                     647 00101$:
   0009 8B 04               648 	mov	ar4,r3
   000B 7D 00               649 	mov	r5,#0x00
   000D C3                  650 	clr	c
   000E EC                  651 	mov	a,r4
   000F 94 10               652 	subb	a,#0x10
   0011 ED                  653 	mov	a,r5
   0012 94 00               654 	subb	a,#0x00
   0014 50 10               655 	jnc	00103$
   0016 EB                  656 	mov	a,r3
   0017 24r02               657 	add	a,#_SchedulerBasicP__m_next
   0019 F5 82               658 	mov	dpl,a
   001B E4                  659 	clr	a
   001C 34s00               660 	addc	a,#(_SchedulerBasicP__m_next >> 8)
   001E F5 83               661 	mov	dph,a
   0020 74 FF               662 	mov	a,#0xFF
   0022 F0                  663 	movx	@dptr,a
   0023 0B                  664 	inc	r3
   0024 80 E3               665 	sjmp	00101$
   0026                     666 00103$:
   0026 90s00r00            667 	mov	dptr,#_SchedulerBasicP__m_head
   0029 74 FF               668 	mov	a,#0xFF
   002B F0                  669 	movx	@dptr,a
   002C 90s00r01            670 	mov	dptr,#_SchedulerBasicP__m_tail
   002F 74 FF               671 	mov	a,#0xFF
   0031 F0                  672 	movx	@dptr,a
   0032 90s00r00            673 	mov	dptr,#_TOS_NODE_ID
   0035 74 01               674 	mov	a,#0x01
   0037 F0                  675 	movx	@dptr,a
   0038 E4                  676 	clr	a
   0039 A3                  677 	inc	dptr
   003A F0                  678 	movx	@dptr,a
   003B AB BE               679 	mov	r3,_SLEEP
   003D 53 03 FC            680 	anl	ar3,#0xFC
   0040 8B BE               681 	mov	_SLEEP,r3
   0042 AB BE               682 	mov	r3,_SLEEP
   0044 53 03 FB            683 	anl	ar3,#0xFB
   0047 7C 00               684 	mov	r4,#0x00
   0049 8B BE               685 	mov	_SLEEP,r3
   004B                     686 00104$:
   004B AB BE               687 	mov	r3,_SLEEP
   004D 7C 00               688 	mov	r4,#0x00
   004F EB                  689 	mov	a,r3
   0050 30 E6 F8            690 	jnb	acc.6,00104$
   0053 75 C6 08            691 	mov	_CLKCON,#0x08
   0056                     692 00107$:
   0056 AB C6               693 	mov	r3,_CLKCON
   0058 7C 00               694 	mov	r4,#0x00
   005A BB 08 F9            695 	cjne	r3,#0x08,00107$
   005D BC 00 F6            696 	cjne	r4,#0x00,00107$
   0060 AB FD               697 	mov	r3,_P0_DIR
   0062 43 03 80            698 	orl	ar3,#0x80
   0065 8B FD               699 	mov	_P0_DIR,r3
   0067 C2 87               700 	clr	_P0_7
   0069 AB FE               701 	mov	r3,_P1_DIR
   006B 43 03 04            702 	orl	ar3,#0x04
   006E 8B FE               703 	mov	_P1_DIR,r3
   0070 AB FE               704 	mov	r3,_P1_DIR
   0072 43 03 08            705 	orl	ar3,#0x08
   0075 8B FE               706 	mov	_P1_DIR,r3
   0077 AB FE               707 	mov	r3,_P1_DIR
   0079 7C 00               708 	mov	r4,#0x00
   007B 43 03 10            709 	orl	ar3,#0x10
   007E 8B FE               710 	mov	_P1_DIR,r3
   0080 D2 92               711 	setb	_P1_2
   0082 D2 93               712 	setb	_P1_3
   0084 D2 94               713 	setb	_P1_4
   0086                     714 00113$:
   0086 C0 02               715 	push	ar2
   0088 12s04r7D            716 	lcall	_SchedulerBasicP__Scheduler__runNextTask
   008B E5 82               717 	mov	a,dpl
   008D D0 02               718 	pop	ar2
   008F 70 F5               719 	jnz	00113$
   0091 90s00r07            720 	mov	dptr,#_AMQueueImplP__0__current
   0094 74 FF               721 	mov	a,#0xFF
   0096 F0                  722 	movx	@dptr,a
   0097 75 CC 00            723 	mov	_T3CCTL0,#0x00
   009A 75 CD 00            724 	mov	_T3CC0,#0x00
   009D 75 CE 00            725 	mov	_T3CCTL1,#0x00
   00A0 75 CF 00            726 	mov	_T3CC1,#0x00
   00A3 75 CA 00            727 	mov	_T3CNT,#0x00
   00A6 75 CB 00            728 	mov	_T3CTL,#0x00
   00A9 75 CB E0            729 	mov	_T3CTL,#0xE0
   00AC AB CB               730 	mov	r3,_T3CTL
   00AE 43 03 10            731 	orl	ar3,#0x10
   00B1 8B CB               732 	mov	_T3CTL,r3
   00B3 AB CB               733 	mov	r3,_T3CTL
   00B5 43 03 02            734 	orl	ar3,#0x02
   00B8 8B CB               735 	mov	_T3CTL,r3
   00BA D2 C3               736 	setb	_T3IF
   00BC D2 D9               737 	setb	_T3CH0IF
   00BE AB CC               738 	mov	r3,_T3CCTL0
   00C0 43 03 44            739 	orl	ar3,#0x44
   00C3 8B CC               740 	mov	_T3CCTL0,r3
   00C5 7B 17               741 	mov	r3,#0x17
   00C7 7C DF               742 	mov	r4,#0xDF
   00C9 90 DF 17            743 	mov	dptr,#0xDF17
   00CC E0                  744 	movx	a,@dptr
   00CD FD                  745 	mov	r5,a
   00CE 74 F7               746 	mov	a,#0xF7
   00D0 5D                  747 	anl	a,r5
   00D1 FE                  748 	mov	r6,a
   00D2 8B 82               749 	mov	dpl,r3
   00D4 8C 83               750 	mov	dph,r4
   00D6 F0                  751 	movx	@dptr,a
   00D7 90 DF 17            752 	mov	dptr,#0xDF17
   00DA 74 08               753 	mov	a,#0x08
   00DC 4D                  754 	orl	a,r5
   00DD FB                  755 	mov	r3,a
   00DE F0                  756 	movx	@dptr,a
   00DF                     757 00115$:
   00DF AB E9               758 	mov	r3,_RFIF
   00E1 7C 00               759 	mov	r4,#0x00
   00E3 EB                  760 	mov	a,r3
   00E4 20 E7 F8            761 	jb	acc.7,00115$
   00E7 AB BE               762 	mov	r3,_SLEEP
   00E9 53 03 FB            763 	anl	ar3,#0xFB
   00EC 8B BE               764 	mov	_SLEEP,r3
   00EE AB C6               765 	mov	r3,_CLKCON
   00F0 53 03 FE            766 	anl	ar3,#0xFE
   00F3 7C 00               767 	mov	r4,#0x00
   00F5 8B C6               768 	mov	_CLKCON,r3
   00F7                     769 00118$:
   00F7 AB BE               770 	mov	r3,_SLEEP
   00F9 7C 00               771 	mov	r4,#0x00
   00FB EB                  772 	mov	a,r3
   00FC 30 E6 F8            773 	jnb	acc.6,00118$
   00FF 90s00r00            774 	mov	dptr,#_TOS_NODE_ID
   0102 E0                  775 	movx	a,@dptr
   0103 FB                  776 	mov	r3,a
   0104 A3                  777 	inc	dptr
   0105 E0                  778 	movx	a,@dptr
   0106 FC                  779 	mov	r4,a
   0107 90 DF 4D            780 	mov	dptr,#0xDF4D
   010A 8C 07               781 	mov	ar7,r4
   010C 8F 06               782 	mov	ar6,r7
   010E EE                  783 	mov	a,r6
   010F F0                  784 	movx	@dptr,a
   0110 90 DF 4E            785 	mov	dptr,#0xDF4E
   0113 EB                  786 	mov	a,r3
   0114 F0                  787 	movx	@dptr,a
   0115 90 DF 4B            788 	mov	dptr,#0xDF4B
   0118 E4                  789 	clr	a
   0119 F0                  790 	movx	@dptr,a
   011A 90 DF 4C            791 	mov	dptr,#0xDF4C
   011D 74 22               792 	mov	a,#0x22
   011F F0                  793 	movx	@dptr,a
   0120 7B 02               794 	mov	r3,#0x02
   0122 7C DF               795 	mov	r4,#0xDF
   0124 90 DF 02            796 	mov	dptr,#0xDF02
   0127 E0                  797 	movx	a,@dptr
   0128 FE                  798 	mov	r6,a
   0129 74 F7               799 	mov	a,#0xF7
   012B 5E                  800 	anl	a,r6
   012C 8B 82               801 	mov	dpl,r3
   012E 8C 83               802 	mov	dph,r4
   0130 F0                  803 	movx	@dptr,a
   0131 7B 03               804 	mov	r3,#0x03
   0133 7C DF               805 	mov	r4,#0xDF
   0135 90 DF 03            806 	mov	dptr,#0xDF03
   0138 E0                  807 	movx	a,@dptr
   0139 FF                  808 	mov	r7,a
   013A 43 07 20            809 	orl	ar7,#0x20
   013D 8B 82               810 	mov	dpl,r3
   013F 8C 83               811 	mov	dph,r4
   0141 EF                  812 	mov	a,r7
   0142 F0                  813 	movx	@dptr,a
   0143 90 DF 4F            814 	mov	dptr,#0xDF4F
   0146 74 7F               815 	mov	a,#0x7F
   0148 F0                  816 	movx	@dptr,a
   0149 90s03r81            817 	mov	dptr,#_HAL_CC2430ControlM__currentChannel
   014C 74 1A               818 	mov	a,#0x1A
   014E F0                  819 	movx	@dptr,a
   014F 90 DF 10            820 	mov	dptr,#0xDF10
   0152 74 41               821 	mov	a,#0x41
   0154 F0                  822 	movx	@dptr,a
   0155 90 DF 11            823 	mov	dptr,#0xDF11
   0158 74 B0               824 	mov	a,#0xB0
   015A F0                  825 	movx	@dptr,a
   015B 90s03r80            826 	mov	dptr,#_HAL_CC2430ControlM__currentPower
   015E 74 5F               827 	mov	a,#0x5F
   0160 F0                  828 	movx	@dptr,a
   0161 90 DF 0B            829 	mov	dptr,#0xDF0B
   0164 74 5F               830 	mov	a,#0x5F
   0166 F0                  831 	movx	@dptr,a
   0167 90 DF 02            832 	mov	dptr,#0xDF02
   016A 43 06 08            833 	orl	ar6,#0x08
   016D EE                  834 	mov	a,r6
   016E F0                  835 	movx	@dptr,a
   016F 90 DF 17            836 	mov	dptr,#0xDF17
   0172 43 05 08            837 	orl	ar5,#0x08
   0175 ED                  838 	mov	a,r5
   0176 F0                  839 	movx	@dptr,a
   0177 AB 91               840 	mov	r3,_RFIM
   0179 43 03 40            841 	orl	ar3,#0x40
   017C 8B 91               842 	mov	_RFIM,r3
   017E AB E9               843 	mov	r3,_RFIF
   0180 53 03 BF            844 	anl	ar3,#0xBF
   0183 8B E9               845 	mov	_RFIF,r3
   0185 AB 9A               846 	mov	r3,_IEN2
   0187 7C 00               847 	mov	r4,#0x00
   0189 43 03 01            848 	orl	ar3,#0x01
   018C 8B 9A               849 	mov	_IEN2,r3
   018E C2 89               850 	clr	_RFERRIF
   0190 D2 A8               851 	setb	_RFERRIE
   0192 7B 00               852 	mov	r3,#0x00
   0194                     853 00121$:
   0194 BB 04 00            854 	cjne	r3,#0x04,00188$
   0197                     855 00188$:
   0197 50 1C               856 	jnc	00123$
   0199 EB                  857 	mov	a,r3
   019A 75 F0 09            858 	mov	b,#0x09
   019D A4                  859 	mul	ab
   019E 24r7C               860 	add	a,#_SCS_VTimerP__0__mTimerList
   01A0 FC                  861 	mov	r4,a
   01A1 E4                  862 	clr	a
   01A2 34s00               863 	addc	a,#(_SCS_VTimerP__0__mTimerList >> 8)
   01A4 FD                  864 	mov	r5,a
   01A5 74 08               865 	mov	a,#0x08
   01A7 2C                  866 	add	a,r4
   01A8 F5 82               867 	mov	dpl,a
   01AA E4                  868 	clr	a
   01AB 3D                  869 	addc	a,r5
   01AC F5 83               870 	mov	dph,a
   01AE E0                  871 	movx	a,@dptr
   01AF 54 FD               872 	anl	a,#0xfd
   01B1 F0                  873 	movx	@dptr,a
   01B2 0B                  874 	inc	r3
   01B3 80 DF               875 	sjmp	00121$
   01B5                     876 00123$:
   01B5 90s00r76            877 	mov	dptr,#_SCS_VTimerP__0__queue_tail
   01B8 74 FF               878 	mov	a,#0xFF
   01BA F0                  879 	movx	@dptr,a
   01BB 90s00r75            880 	mov	dptr,#_SCS_VTimerP__0__queue_head
   01BE 74 FF               881 	mov	a,#0xFF
   01C0 F0                  882 	movx	@dptr,a
   01C1 90s00r77            883 	mov	dptr,#_SCS_VTimerP__0__queue_size
   01C4 E4                  884 	clr	a
   01C5 F0                  885 	movx	@dptr,a
   01C6 90s00r74            886 	mov	dptr,#_SCS_VTimerP__0__mInterval
   01C9 74 E6               887 	mov	a,#0xE6
   01CB F0                  888 	movx	@dptr,a
   01CC 90s05r3B            889 	mov	dptr,#_main__cil_inline_tmp_1656_1_1
   01CF 74 4E               890 	mov	a,#0x4E
   01D1 F0                  891 	movx	@dptr,a
   01D2 A3                  892 	inc	dptr
   01D3 74 70               893 	mov	a,#0x70
   01D5 F0                  894 	movx	@dptr,a
   01D6 75 E6 00            895 	mov	_T1CCTL1,#0x00
   01D9 75 E7 00            896 	mov	_T1CCTL2,#0x00
   01DC 75 E2 00            897 	mov	_T1CNTL,#0x00
   01DF 75 E3 00            898 	mov	_T1CNTH,#0x00
   01E2 75 E5 00            899 	mov	_T1CCTL0,#0x00
   01E5 75 E4 00            900 	mov	_T1CTL,#0x00
   01E8 75 E4 0C            901 	mov	_T1CTL,#0x0C
   01EB D2 B9               902 	setb	_T1IE
   01ED AB D8               903 	mov	r3,_TIMIF
   01EF 43 03 40            904 	orl	ar3,#0x40
   01F2 8B D8               905 	mov	_TIMIF,r3
   01F4 90s05r3B            906 	mov	dptr,#_main__cil_inline_tmp_1656_1_1
   01F7 E0                  907 	movx	a,@dptr
   01F8 F5 DA               908 	mov	_T1CC0L,a
   01FA 90s05r3C            909 	mov	dptr,#(_main__cil_inline_tmp_1656_1_1 + 0x0001)
   01FD 75 F0 00            910 	mov	b,#0x00
   0200 12s00r00            911 	lcall	__gptrget
   0203 F5 DB               912 	mov	_T1CC0H,a
   0205 AB E4               913 	mov	r3,_T1CTL
   0207 43 03 20            914 	orl	ar3,#0x20
   020A 8B E4               915 	mov	_T1CTL,r3
   020C AB E4               916 	mov	r3,_T1CTL
   020E 43 03 02            917 	orl	ar3,#0x02
   0211 8B E4               918 	mov	_T1CTL,r3
   0213 AB E5               919 	mov	r3,_T1CCTL0
   0215 7C 00               920 	mov	r4,#0x00
   0217 43 03 44            921 	orl	ar3,#0x44
   021A 8B E5               922 	mov	_T1CCTL0,r3
   021C                     923 00127$:
   021C C0 02               924 	push	ar2
   021E 12s04r7D            925 	lcall	_SchedulerBasicP__Scheduler__runNextTask
   0221 E5 82               926 	mov	a,dpl
   0223 D0 02               927 	pop	ar2
   0225 70 F5               928 	jnz	00127$
   0227 EA                  929 	mov	a,r2
   0228 24 FF               930 	add	a,#0xff
   022A 92 AF               931 	mov	_EA,c
   022C D2 AF               932 	setb	_EA
   022E 90s00r72            933 	mov	dptr,#_Adhoc_APPM__APP_Seq
   0231 E4                  934 	clr	a
   0232 F0                  935 	movx	@dptr,a
   0233 A3                  936 	inc	dptr
   0234 F0                  937 	movx	@dptr,a
   0235 90s00r00            938 	mov	dptr,#_TOS_NODE_ID
   0238 E0                  939 	movx	a,@dptr
   0239 FA                  940 	mov	r2,a
   023A A3                  941 	inc	dptr
   023B E0                  942 	movx	a,@dptr
   023C FB                  943 	mov	r3,a
   023D 8A 82               944 	mov	dpl,r2
   023F 8B 83               945 	mov	dph,r3
   0241 12s1CrD7            946 	lcall	_RandomC__SeedInit__init
   0244 12s1Cr0D            947 	lcall	_RandomC__Random__rand16
   0247 AA 82               948 	mov	r2,dpl
   0249 AB 83               949 	mov	r3,dph
   024B A2 AF               950 	mov	c,_EA
   024D E4                  951 	clr	a
   024E 33                  952 	rlc	a
   024F FC                  953 	mov	r4,a
   0250 C2 AF               954 	clr	_EA
   0252 90s02r08            955 	mov	dptr,#_FloodingM__Next_Addr
   0255 74 FF               956 	mov	a,#0xFF
   0257 F0                  957 	movx	@dptr,a
   0258 A3                  958 	inc	dptr
   0259 F0                  959 	movx	@dptr,a
   025A 90s02r0A            960 	mov	dptr,#_FloodingM__Forward_Buff_Index
   025D E4                  961 	clr	a
   025E F0                  962 	movx	@dptr,a
   025F 90s02r0B            963 	mov	dptr,#_FloodingM__RTable_Index
   0262 F0                  964 	movx	@dptr,a
   0263 90s00r00            965 	mov	dptr,#__moduint_PARM_2
   0266 74 FF               966 	mov	a,#0xFF
   0268 F0                  967 	movx	@dptr,a
   0269 E4                  968 	clr	a
   026A A3                  969 	inc	dptr
   026B F0                  970 	movx	@dptr,a
   026C 8A 82               971 	mov	dpl,r2
   026E 8B 83               972 	mov	dph,r3
   0270 C0 04               973 	push	ar4
   0272 12s00r00            974 	lcall	__moduint
   0275 AA 82               975 	mov	r2,dpl
   0277 AB 83               976 	mov	r3,dph
   0279 D0 04               977 	pop	ar4
   027B 90s02r0C            978 	mov	dptr,#_FloodingM__mySequence
   027E EA                  979 	mov	a,r2
   027F F0                  980 	movx	@dptr,a
   0280 7A 00               981 	mov	r2,#0x00
   0282                     982 00129$:
   0282 BA 14 00            983 	cjne	r2,#0x14,00191$
   0285                     984 00191$:
   0285 50 39               985 	jnc	00131$
   0287 EA                  986 	mov	a,r2
   0288 75 F0 05            987 	mov	b,#0x05
   028B A4                  988 	mul	ab
   028C FB                  989 	mov	r3,a
   028D 24r0D               990 	add	a,#_FloodingM__RTable
   028F F5 82               991 	mov	dpl,a
   0291 E4                  992 	clr	a
   0292 34s02               993 	addc	a,#(_FloodingM__RTable >> 8)
   0294 F5 83               994 	mov	dph,a
   0296 74 FE               995 	mov	a,#0xFE
   0298 F0                  996 	movx	@dptr,a
   0299 A3                  997 	inc	dptr
   029A 74 FF               998 	mov	a,#0xFF
   029C F0                  999 	movx	@dptr,a
   029D EB                 1000 	mov	a,r3
   029E 24r0D              1001 	add	a,#_FloodingM__RTable
   02A0 FB                 1002 	mov	r3,a
   02A1 E4                 1003 	clr	a
   02A2 34s02              1004 	addc	a,#(_FloodingM__RTable >> 8)
   02A4 FD                 1005 	mov	r5,a
   02A5 8B 82              1006 	mov	dpl,r3
   02A7 8D 83              1007 	mov	dph,r5
   02A9 A3                 1008 	inc	dptr
   02AA A3                 1009 	inc	dptr
   02AB 74 FE              1010 	mov	a,#0xFE
   02AD F0                 1011 	movx	@dptr,a
   02AE A3                 1012 	inc	dptr
   02AF 74 FF              1013 	mov	a,#0xFF
   02B1 F0                 1014 	movx	@dptr,a
   02B2 8B 82              1015 	mov	dpl,r3
   02B4 8D 83              1016 	mov	dph,r5
   02B6 A3                 1017 	inc	dptr
   02B7 A3                 1018 	inc	dptr
   02B8 A3                 1019 	inc	dptr
   02B9 A3                 1020 	inc	dptr
   02BA 74 FF              1021 	mov	a,#0xFF
   02BC F0                 1022 	movx	@dptr,a
   02BD 0A                 1023 	inc	r2
   02BE 80 C2              1024 	sjmp	00129$
   02C0                    1025 00131$:
   02C0 EC                 1026 	mov	a,r4
   02C1 24 FF              1027 	add	a,#0xff
   02C3 92 AF              1028 	mov	_EA,c
   02C5 90s02r79           1029 	mov	dptr,#_CC2430ActiveMessageM__AckEnable
   02C8 74 01              1030 	mov	a,#0x01
   02CA F0                 1031 	movx	@dptr,a
   02CB 90 DF 17           1032 	mov	dptr,#0xDF17
   02CE 74 04              1033 	mov	a,#0x04
   02D0 F0                 1034 	movx	@dptr,a
   02D1                    1035 00132$:
   02D1 90 DF 17           1036 	mov	dptr,#0xDF17
   02D4 E0                 1037 	movx	a,@dptr
   02D5 FA                 1038 	mov	r2,a
   02D6 20 E4 F8           1039 	jb	acc.4,00132$
   02D9 75 E1 E6           1040 	mov	_RFST,#0xE6
   02DC 75 E1 E6           1041 	mov	_RFST,#0xE6
   02DF A2 AF              1042 	mov	c,_EA
   02E1 E4                 1043 	clr	a
   02E2 33                 1044 	rlc	a
   02E3 FA                 1045 	mov	r2,a
   02E4 C2 AF              1046 	clr	_EA
   02E6 AB 91              1047 	mov	r3,_RFIM
   02E8 43 03 20           1048 	orl	ar3,#0x20
   02EB 8B 91              1049 	mov	_RFIM,r3
   02ED AB E9              1050 	mov	r3,_RFIF
   02EF 53 03 DF           1051 	anl	ar3,#0xDF
   02F2 8B E9              1052 	mov	_RFIF,r3
   02F4 AB 9A              1053 	mov	r3,_IEN2
   02F6 43 03 01           1054 	orl	ar3,#0x01
   02F9 8B 9A              1055 	mov	_IEN2,r3
   02FB EA                 1056 	mov	a,r2
   02FC 24 FF              1057 	add	a,#0xff
   02FE 92 AF              1058 	mov	_EA,c
   0300 75 E1 E2           1059 	mov	_RFST,#0xE2
   0303 90s03r83           1060 	mov	dptr,#_HAL_CC2430ControlM__transmitInProgress
   0306 E4                 1061 	clr	a
   0307 F0                 1062 	movx	@dptr,a
   0308 90s03r84           1063 	mov	dptr,#_HAL_CC2430ControlM__WaitACK_Flag
   030B F0                 1064 	movx	@dptr,a
   030C 7A 02              1065 	mov	r2,#0x02
   030E 7B DF              1066 	mov	r3,#0xDF
   0310 90 DF 02           1067 	mov	dptr,#0xDF02
   0313 E0                 1068 	movx	a,@dptr
   0314 FC                 1069 	mov	r4,a
   0315 43 04 08           1070 	orl	ar4,#0x08
   0318 8A 82              1071 	mov	dpl,r2
   031A 8B 83              1072 	mov	dph,r3
   031C EC                 1073 	mov	a,r4
   031D F0                 1074 	movx	@dptr,a
   031E 7A 03              1075 	mov	r2,#0x03
   0320 7B DF              1076 	mov	r3,#0xDF
   0322 90 DF 03           1077 	mov	dptr,#0xDF03
   0325 E0                 1078 	movx	a,@dptr
   0326 FC                 1079 	mov	r4,a
   0327 43 04 10           1080 	orl	ar4,#0x10
   032A 8A 82              1081 	mov	dpl,r2
   032C 8B 83              1082 	mov	dph,r3
   032E EC                 1083 	mov	a,r4
   032F F0                 1084 	movx	@dptr,a
   0330 90s02r76           1085 	mov	dptr,#_CC2430ActiveMessageM__RF_Status
   0333 74 01              1086 	mov	a,#0x01
   0335 F0                 1087 	movx	@dptr,a
   0336 90s02r78           1088 	mov	dptr,#_CC2430ActiveMessageM__NumReTX
   0339 E4                 1089 	clr	a
   033A F0                 1090 	movx	@dptr,a
   033B 90s00r00           1091 	mov	dptr,#_TOS_NODE_ID
   033E E0                 1092 	movx	a,@dptr
   033F FA                 1093 	mov	r2,a
   0340 A3                 1094 	inc	dptr
   0341 E0                 1095 	movx	a,@dptr
   0342 EA                 1096 	mov	a,r2
   0343 75 F0 0D           1097 	mov	b,#0x0D
   0346 A4                 1098 	mul	ab
   0347 FA                 1099 	mov	r2,a
   0348 90s02r77           1100 	mov	dptr,#_CC2430ActiveMessageM__MAC_Seq
   034B F0                 1101 	movx	@dptr,a
   034C 7B 00              1102 	mov	r3,#0x00
   034E 8A 82              1103 	mov	dpl,r2
   0350 8B 83              1104 	mov	dph,r3
   0352 12s1CrD7           1105 	lcall	_RandomC__SeedInit__init
   0355 90s04r08           1106 	mov	dptr,#_SerialActiveMessageP__0__NowReceiving
   0358 E4                 1107 	clr	a
   0359 F0                 1108 	movx	@dptr,a
   035A 90s04r09           1109 	mov	dptr,#_SerialActiveMessageP__0__Rindex
   035D F0                 1110 	movx	@dptr,a
   035E 90s04r0A           1111 	mov	dptr,#_SerialActiveMessageP__0__Escape_Flag
   0361 F0                 1112 	movx	@dptr,a
   0362 90s04r8A           1113 	mov	dptr,#_SerialActiveMessageP__0__RecvAckType
   0365 F0                 1114 	movx	@dptr,a
   0366 90s05r0A           1115 	mov	dptr,#_SerialActiveMessageP__0__SendProcessing
   0369 E4                 1116 	clr	a
   036A F0                 1117 	movx	@dptr,a
   036B 90s00r02           1118 	mov	dptr,#_SCSuartDBGM__state
   036E F0                 1119 	movx	@dptr,a
   036F 90s00r03           1120 	mov	dptr,#_SCSuartDBGM__buff_start
   0372 F0                 1121 	movx	@dptr,a
   0373 A3                 1122 	inc	dptr
   0374 F0                 1123 	movx	@dptr,a
   0375 90s00r05           1124 	mov	dptr,#_SCSuartDBGM__buff_end
   0378 E4                 1125 	clr	a
   0379 F0                 1126 	movx	@dptr,a
   037A A3                 1127 	inc	dptr
   037B F0                 1128 	movx	@dptr,a
   037C AA F1              1129 	mov	r2,_PERCFG
   037E 8A F1              1130 	mov	_PERCFG,r2
   0380 AA F3              1131 	mov	r2,_P0SEL
   0382 43 02 0C           1132 	orl	ar2,#0x0C
   0385 8A F3              1133 	mov	_P0SEL,r2
   0387 75 C2 D8           1134 	mov	_U0BAUD,#0xD8
   038A 75 C5 0A           1135 	mov	_U0GCR,#0x0A
   038D AA 86              1136 	mov	r2,_U0CSR
   038F 43 02 C0           1137 	orl	ar2,#0xC0
   0392 8A 86              1138 	mov	_U0CSR,r2
   0394 AA C4              1139 	mov	r2,_U0UCR
   0396 43 02 82           1140 	orl	ar2,#0x82
   0399 8A C4              1141 	mov	_U0UCR,r2
   039B C2 E9              1142 	clr	_UTX0IF
   039D C2 8B              1143 	clr	_URX0IF
   039F D2 AA              1144 	setb	_URX0IE
   03A1 AA 9A              1145 	mov	r2,_IEN2
   03A3 43 02 04           1146 	orl	ar2,#0x04
   03A6 8A 9A              1147 	mov	_IEN2,r2
   03A8 AA F1              1148 	mov	r2,_PERCFG
   03AA 43 02 02           1149 	orl	ar2,#0x02
   03AD 8A F1              1150 	mov	_PERCFG,r2
   03AF AA F4              1151 	mov	r2,_P1SEL
   03B1 43 02 C0           1152 	orl	ar2,#0xC0
   03B4 8A F4              1153 	mov	_P1SEL,r2
   03B6 75 FA D8           1154 	mov	_U1BAUD,#0xD8
   03B9 75 FC 0A           1155 	mov	_U1GCR,#0x0A
   03BC AA F8              1156 	mov	r2,_U1CSR
   03BE 43 02 C0           1157 	orl	ar2,#0xC0
   03C1 8A F8              1158 	mov	_U1CSR,r2
   03C3 AA FB              1159 	mov	r2,_U1UCR
   03C5 43 02 82           1160 	orl	ar2,#0x82
   03C8 8A FB              1161 	mov	_U1UCR,r2
   03CA C2 EA              1162 	clr	_UTX1IF
   03CC C2 8F              1163 	clr	_URX1IF
   03CE D2 AB              1164 	setb	_URX1IE
   03D0 AA 9A              1165 	mov	r2,_IEN2
   03D2 43 02 08           1166 	orl	ar2,#0x08
   03D5 8A 9A              1167 	mov	_IEN2,r2
   03D7 90s00r00           1168 	mov	dptr,#_TOS_NODE_ID
   03DA E0                 1169 	movx	a,@dptr
   03DB FA                 1170 	mov	r2,a
   03DC A3                 1171 	inc	dptr
   03DD E0                 1172 	movx	a,@dptr
   03DE FB                 1173 	mov	r3,a
   03DF 4A                 1174 	orl	a,r2
   03E0 60 1A              1175 	jz	00148$
   03E2 90s05rCC           1176 	mov	dptr,#_SCS_VTimerP__0__startTimer_PARM_2
   03E5 74 B8              1177 	mov	a,#0xB8
   03E7 F0                 1178 	movx	@dptr,a
   03E8 A3                 1179 	inc	dptr
   03E9 74 0B              1180 	mov	a,#0x0B
   03EB F0                 1181 	movx	@dptr,a
   03EC A3                 1182 	inc	dptr
   03ED E4                 1183 	clr	a
   03EE F0                 1184 	movx	@dptr,a
   03EF A3                 1185 	inc	dptr
   03F0 F0                 1186 	movx	@dptr,a
   03F1 90s05rD0           1187 	mov	dptr,#_SCS_VTimerP__0__startTimer_PARM_3
   03F4 E4                 1188 	clr	a
   03F5 F0                 1189 	movx	@dptr,a
   03F6 75 82 00           1190 	mov	dpl,#0x00
   03F9 12s17r65           1191 	lcall	_SCS_VTimerP__0__startTimer
   03FC                    1192 00148$:
   03FC A2 AF              1193 	mov	c,_EA
   03FE E4                 1194 	clr	a
   03FF 33                 1195 	rlc	a
   0400 FA                 1196 	mov	r2,a
   0401 C2 AF              1197 	clr	_EA
   0403                    1198 00145$:
   0403 90s00r00           1199 	mov	dptr,#_SchedulerBasicP__m_head
   0406 E0                 1200 	movx	a,@dptr
   0407 FB                 1201 	mov	r3,a
   0408 7C 00              1202 	mov	r4,#0x00
   040A BB FF 05           1203 	cjne	r3,#0xFF,00195$
   040D BC 00 02           1204 	cjne	r4,#0x00,00195$
   0410 80 3E              1205 	sjmp	00140$
   0412                    1206 00195$:
   0412 90s00r00           1207 	mov	dptr,#_SchedulerBasicP__m_head
   0415 E0                 1208 	movx	a,@dptr
   0416 FB                 1209 	mov	r3,a
   0417 90s00r00           1210 	mov	dptr,#_SchedulerBasicP__m_head
   041A E0                 1211 	movx	a,@dptr
   041B 24r02              1212 	add	a,#_SchedulerBasicP__m_next
   041D F5 82              1213 	mov	dpl,a
   041F E4                 1214 	clr	a
   0420 34s00              1215 	addc	a,#(_SchedulerBasicP__m_next >> 8)
   0422 F5 83              1216 	mov	dph,a
   0424 E0                 1217 	movx	a,@dptr
   0425 90s00r00           1218 	mov	dptr,#_SchedulerBasicP__m_head
   0428 F0                 1219 	movx	@dptr,a
   0429 90s00r00           1220 	mov	dptr,#_SchedulerBasicP__m_head
   042C E0                 1221 	movx	a,@dptr
   042D FC                 1222 	mov	r4,a
   042E 7D 00              1223 	mov	r5,#0x00
   0430 BC FF 09           1224 	cjne	r4,#0xFF,00138$
   0433 BD 00 06           1225 	cjne	r5,#0x00,00138$
   0436 90s00r01           1226 	mov	dptr,#_SchedulerBasicP__m_tail
   0439 74 FF              1227 	mov	a,#0xFF
   043B F0                 1228 	movx	@dptr,a
   043C                    1229 00138$:
   043C EB                 1230 	mov	a,r3
   043D 24r02              1231 	add	a,#_SchedulerBasicP__m_next
   043F F5 82              1232 	mov	dpl,a
   0441 E4                 1233 	clr	a
   0442 34s00              1234 	addc	a,#(_SchedulerBasicP__m_next >> 8)
   0444 F5 83              1235 	mov	dph,a
   0446 74 FF              1236 	mov	a,#0xFF
   0448 F0                 1237 	movx	@dptr,a
   0449 90s05r3D           1238 	mov	dptr,#_main__cil_inline_tmp_1718_1_1
   044C EB                 1239 	mov	a,r3
   044D F0                 1240 	movx	@dptr,a
   044E 80 06              1241 	sjmp	00141$
   0450                    1242 00140$:
   0450 90s05r3D           1243 	mov	dptr,#_main__cil_inline_tmp_1718_1_1
   0453 74 FF              1244 	mov	a,#0xFF
   0455 F0                 1245 	movx	@dptr,a
   0456                    1246 00141$:
   0456 90s05r3D           1247 	mov	dptr,#_main__cil_inline_tmp_1718_1_1
   0459 E0                 1248 	movx	a,@dptr
   045A FB                 1249 	mov	r3,a
   045B BB FF 12           1250 	cjne	r3,#0xFF,00146$
   045E D2 AF              1251 	setb	_EA
   0460 AC BE              1252 	mov	r4,_SLEEP
   0462 53 04 FC           1253 	anl	ar4,#0xFC
   0465 7D 00              1254 	mov	r5,#0x00
   0467 43 04 01           1255 	orl	ar4,#0x01
   046A 8C BE              1256 	mov	_SLEEP,r4
   046C C2 AF              1257 	clr	_EA
   046E 80 93              1258 	sjmp	00145$
   0470                    1259 00146$:
   0470 EA                 1260 	mov	a,r2
   0471 24 FF              1261 	add	a,#0xff
   0473 92 AF              1262 	mov	_EA,c
   0475 8B 82              1263 	mov	dpl,r3
   0477 12s04rE6           1264 	lcall	_SchedulerBasicP__TaskBasic__runTask
   047A 02s03rFC           1265 	ljmp	00148$
                           1266 ;------------------------------------------------------------
                           1267 ;Allocation info for local variables in function 'SchedulerBasicP__Scheduler__runNextTask'
                           1268 ;------------------------------------------------------------
                           1269 ;_cil_inline_tmp_1721      Allocated with name '_SchedulerBasicP__Scheduler__runNextTask__cil_inline_tmp_1721_1_1'
                           1270 ;_cil_inline_tmp_1722      Allocated with name '_SchedulerBasicP__Scheduler__runNextTask__cil_inline_tmp_1722_1_1'
                           1271 ;------------------------------------------------------------
                           1272 ;	-----------------------------------------
                           1273 ;	 function SchedulerBasicP__Scheduler__runNextTask
                           1274 ;	-----------------------------------------
   047D                    1275 _SchedulerBasicP__Scheduler__runNextTask:
   047D 90s00r00           1276 	mov	dptr,#_SchedulerBasicP__m_head
   0480 E0                 1277 	movx	a,@dptr
   0481 FA                 1278 	mov	r2,a
   0482 7B 00              1279 	mov	r3,#0x00
   0484 BA FF 05           1280 	cjne	r2,#0xFF,00113$
   0487 BB 00 02           1281 	cjne	r3,#0x00,00113$
   048A 80 3E              1282 	sjmp	00104$
   048C                    1283 00113$:
   048C 90s00r00           1284 	mov	dptr,#_SchedulerBasicP__m_head
   048F E0                 1285 	movx	a,@dptr
   0490 FA                 1286 	mov	r2,a
   0491 90s00r00           1287 	mov	dptr,#_SchedulerBasicP__m_head
   0494 E0                 1288 	movx	a,@dptr
   0495 24r02              1289 	add	a,#_SchedulerBasicP__m_next
   0497 F5 82              1290 	mov	dpl,a
   0499 E4                 1291 	clr	a
   049A 34s00              1292 	addc	a,#(_SchedulerBasicP__m_next >> 8)
   049C F5 83              1293 	mov	dph,a
   049E E0                 1294 	movx	a,@dptr
   049F 90s00r00           1295 	mov	dptr,#_SchedulerBasicP__m_head
   04A2 F0                 1296 	movx	@dptr,a
   04A3 90s00r00           1297 	mov	dptr,#_SchedulerBasicP__m_head
   04A6 E0                 1298 	movx	a,@dptr
   04A7 FB                 1299 	mov	r3,a
   04A8 7C 00              1300 	mov	r4,#0x00
   04AA BB FF 09           1301 	cjne	r3,#0xFF,00102$
   04AD BC 00 06           1302 	cjne	r4,#0x00,00102$
   04B0 90s00r01           1303 	mov	dptr,#_SchedulerBasicP__m_tail
   04B3 74 FF              1304 	mov	a,#0xFF
   04B5 F0                 1305 	movx	@dptr,a
   04B6                    1306 00102$:
   04B6 EA                 1307 	mov	a,r2
   04B7 24r02              1308 	add	a,#_SchedulerBasicP__m_next
   04B9 F5 82              1309 	mov	dpl,a
   04BB E4                 1310 	clr	a
   04BC 34s00              1311 	addc	a,#(_SchedulerBasicP__m_next >> 8)
   04BE F5 83              1312 	mov	dph,a
   04C0 74 FF              1313 	mov	a,#0xFF
   04C2 F0                 1314 	movx	@dptr,a
   04C3 90s05r3E           1315 	mov	dptr,#_SchedulerBasicP__Scheduler__runNextTask__cil_inline_tmp_1721_1_1
   04C6 EA                 1316 	mov	a,r2
   04C7 F0                 1317 	movx	@dptr,a
   04C8 80 06              1318 	sjmp	00105$
   04CA                    1319 00104$:
   04CA 90s05r3E           1320 	mov	dptr,#_SchedulerBasicP__Scheduler__runNextTask__cil_inline_tmp_1721_1_1
   04CD 74 FF              1321 	mov	a,#0xFF
   04CF F0                 1322 	movx	@dptr,a
   04D0                    1323 00105$:
   04D0 90s05r3E           1324 	mov	dptr,#_SchedulerBasicP__Scheduler__runNextTask__cil_inline_tmp_1721_1_1
   04D3 E0                 1325 	movx	a,@dptr
   04D4 FA                 1326 	mov	r2,a
   04D5 BA FF 04           1327 	cjne	r2,#0xFF,00107$
   04D8 75 82 00           1328 	mov	dpl,#0x00
   04DB 22                 1329 	ret
   04DC                    1330 00107$:
   04DC 8A 82              1331 	mov	dpl,r2
   04DE 12s04rE6           1332 	lcall	_SchedulerBasicP__TaskBasic__runTask
   04E1 75 82 01           1333 	mov	dpl,#0x01
   04E4 22                 1334 	ret
                           1335 ;------------------------------------------------------------
                           1336 ;Allocation info for local variables in function 'SchedulerBasicP__TaskBasic__default__runTask'
                           1337 ;------------------------------------------------------------
                           1338 ;------------------------------------------------------------
                           1339 ;	-----------------------------------------
                           1340 ;	 function SchedulerBasicP__TaskBasic__default__runTask
                           1341 ;	-----------------------------------------
   04E5                    1342 _SchedulerBasicP__TaskBasic__default__runTask:
   04E5 22                 1343 	ret
                           1344 ;------------------------------------------------------------
                           1345 ;Allocation info for local variables in function 'SchedulerBasicP__TaskBasic__runTask'
                           1346 ;------------------------------------------------------------
                           1347 ;sloc0                     Allocated with name '_SchedulerBasicP__TaskBasic__runTask_sloc0_1_0'
                           1348 ;arg_0x1a420d78            Allocated with name '_SchedulerBasicP__TaskBasic__runTask_arg_0x1a420d78_1_1'
                           1349 ;_cil_inline_tmp_1723      Allocated with name '_SchedulerBasicP__TaskBasic__runTask__cil_inline_tmp_1723_1_1'
                           1350 ;_cil_inline_tmp_1727      Allocated with name '_SchedulerBasicP__TaskBasic__runTask__cil_inline_tmp_1727_1_1'
                           1351 ;_cil_inline_tmp_1728      Allocated with name '_SchedulerBasicP__TaskBasic__runTask__cil_inline_tmp_1728_1_1'
                           1352 ;_cil_inline_tmp_1732      Allocated with name '_SchedulerBasicP__TaskBasic__runTask__cil_inline_tmp_1732_1_1'
                           1353 ;_cil_inline_tmp_1733      Allocated with name '_SchedulerBasicP__TaskBasic__runTask__cil_inline_tmp_1733_1_1'
                           1354 ;_cil_inline_tmp_1737      Allocated with name '_SchedulerBasicP__TaskBasic__runTask__cil_inline_tmp_1737_1_1'
                           1355 ;_cil_inline_tmp_1761      Allocated with name '_SchedulerBasicP__TaskBasic__runTask__cil_inline_tmp_1761_1_1'
                           1356 ;_cil_inline_tmp_1764      Allocated with name '_SchedulerBasicP__TaskBasic__runTask__cil_inline_tmp_1764_1_1'
                           1357 ;_cil_inline_tmp_1777      Allocated with name '_SchedulerBasicP__TaskBasic__runTask__cil_inline_tmp_1777_1_1'
                           1358 ;_cil_inline_tmp_1779      Allocated with name '_SchedulerBasicP__TaskBasic__runTask__cil_inline_tmp_1779_1_1'
                           1359 ;_cil_inline_tmp_1799      Allocated with name '_SchedulerBasicP__TaskBasic__runTask__cil_inline_tmp_1799_1_1'
                           1360 ;_cil_inline_tmp_1800      Allocated with name '_SchedulerBasicP__TaskBasic__runTask__cil_inline_tmp_1800_1_1'
                           1361 ;_cil_inline_tmp_1803      Allocated with name '_SchedulerBasicP__TaskBasic__runTask__cil_inline_tmp_1803_1_1'
                           1362 ;_cil_inline_tmp_1807      Allocated with name '_SchedulerBasicP__TaskBasic__runTask__cil_inline_tmp_1807_1_1'
                           1363 ;_cil_inline_tmp_1808      Allocated with name '_SchedulerBasicP__TaskBasic__runTask__cil_inline_tmp_1808_1_1'
                           1364 ;_cil_inline_tmp_1809      Allocated with name '_SchedulerBasicP__TaskBasic__runTask__cil_inline_tmp_1809_1_1'
                           1365 ;_cil_inline_tmp_1810      Allocated with name '_SchedulerBasicP__TaskBasic__runTask__cil_inline_tmp_1810_1_1'
                           1366 ;_cil_inline_tmp_1811      Allocated with name '_SchedulerBasicP__TaskBasic__runTask__cil_inline_tmp_1811_1_1'
                           1367 ;_cil_inline_tmp_1812      Allocated with name '_SchedulerBasicP__TaskBasic__runTask__cil_inline_tmp_1812_1_1'
                           1368 ;_cil_inline_tmp_1813      Allocated with name '_SchedulerBasicP__TaskBasic__runTask__cil_inline_tmp_1813_1_1'
                           1369 ;_cil_inline_tmp_1814      Allocated with name '_SchedulerBasicP__TaskBasic__runTask__cil_inline_tmp_1814_1_1'
                           1370 ;_cil_inline_tmp_1818      Allocated with name '_SchedulerBasicP__TaskBasic__runTask__cil_inline_tmp_1818_1_1'
                           1371 ;_cil_inline_tmp_1819      Allocated with name '_SchedulerBasicP__TaskBasic__runTask__cil_inline_tmp_1819_1_1'
                           1372 ;_cil_inline_tmp_1821      Allocated with name '_SchedulerBasicP__TaskBasic__runTask__cil_inline_tmp_1821_1_1'
                           1373 ;_cil_inline_tmp_1825      Allocated with name '_SchedulerBasicP__TaskBasic__runTask__cil_inline_tmp_1825_1_1'
                           1374 ;_cil_inline_tmp_1828      Allocated with name '_SchedulerBasicP__TaskBasic__runTask__cil_inline_tmp_1828_1_1'
                           1375 ;_cil_inline_tmp_1832      Allocated with name '_SchedulerBasicP__TaskBasic__runTask__cil_inline_tmp_1832_1_1'
                           1376 ;_cil_inline_tmp_1835      Allocated with name '_SchedulerBasicP__TaskBasic__runTask__cil_inline_tmp_1835_1_1'
                           1377 ;_cil_inline_tmp_1841      Allocated with name '_SchedulerBasicP__TaskBasic__runTask__cil_inline_tmp_1841_1_1'
                           1378 ;_cil_inline_tmp_1842      Allocated with name '_SchedulerBasicP__TaskBasic__runTask__cil_inline_tmp_1842_1_1'
                           1379 ;_cil_inline_tmp_1848      Allocated with name '_SchedulerBasicP__TaskBasic__runTask__cil_inline_tmp_1848_1_1'
                           1380 ;_cil_inline_tmp_1857      Allocated with name '_SchedulerBasicP__TaskBasic__runTask__cil_inline_tmp_1857_1_1'
                           1381 ;_cil_inline_tmp_1860      Allocated with name '_SchedulerBasicP__TaskBasic__runTask__cil_inline_tmp_1860_1_1'
                           1382 ;_cil_inline_tmp_1861      Allocated with name '_SchedulerBasicP__TaskBasic__runTask__cil_inline_tmp_1861_1_1'
                           1383 ;_cil_inline_tmp_1870      Allocated with name '_SchedulerBasicP__TaskBasic__runTask__cil_inline_tmp_1870_1_1'
                           1384 ;_cil_inline_tmp_1871      Allocated with name '_SchedulerBasicP__TaskBasic__runTask__cil_inline_tmp_1871_1_1'
                           1385 ;_cil_inline_tmp_1874      Allocated with name '_SchedulerBasicP__TaskBasic__runTask__cil_inline_tmp_1874_1_1'
                           1386 ;_cil_inline_tmp_1877      Allocated with name '_SchedulerBasicP__TaskBasic__runTask__cil_inline_tmp_1877_1_1'
                           1387 ;_cil_inline_tmp_1892      Allocated with name '_SchedulerBasicP__TaskBasic__runTask__cil_inline_tmp_1892_1_1'
                           1388 ;_cil_inline_tmp_1893      Allocated with name '_SchedulerBasicP__TaskBasic__runTask__cil_inline_tmp_1893_1_1'
                           1389 ;_cil_inline_tmp_1896      Allocated with name '_SchedulerBasicP__TaskBasic__runTask__cil_inline_tmp_1896_1_1'
                           1390 ;_cil_inline_tmp_1917      Allocated with name '_SchedulerBasicP__TaskBasic__runTask__cil_inline_tmp_1917_1_1'
                           1391 ;_cil_inline_tmp_1939      Allocated with name '_SchedulerBasicP__TaskBasic__runTask__cil_inline_tmp_1939_1_1'
                           1392 ;_cil_inline_tmp_1959      Allocated with name '_SchedulerBasicP__TaskBasic__runTask__cil_inline_tmp_1959_1_1'
                           1393 ;_cil_inline_tmp_1980      Allocated with name '_SchedulerBasicP__TaskBasic__runTask__cil_inline_tmp_1980_1_1'
                           1394 ;_cil_inline_tmp_1981      Allocated with name '_SchedulerBasicP__TaskBasic__runTask__cil_inline_tmp_1981_1_1'
                           1395 ;_cil_inline_tmp_1983      Allocated with name '_SchedulerBasicP__TaskBasic__runTask__cil_inline_tmp_1983_1_1'
                           1396 ;_cil_inline_tmp_1993      Allocated with name '_SchedulerBasicP__TaskBasic__runTask__cil_inline_tmp_1993_1_1'
                           1397 ;_cil_inline_tmp_1994      Allocated with name '_SchedulerBasicP__TaskBasic__runTask__cil_inline_tmp_1994_1_1'
                           1398 ;_cil_inline_tmp_2004      Allocated with name '_SchedulerBasicP__TaskBasic__runTask__cil_inline_tmp_2004_1_1'
                           1399 ;_cil_inline_tmp_2032      Allocated with name '_SchedulerBasicP__TaskBasic__runTask__cil_inline_tmp_2032_1_1'
                           1400 ;_cil_inline_tmp_2033      Allocated with name '_SchedulerBasicP__TaskBasic__runTask__cil_inline_tmp_2033_1_1'
                           1401 ;------------------------------------------------------------
                           1402 ;	-----------------------------------------
                           1403 ;	 function SchedulerBasicP__TaskBasic__runTask
                           1404 ;	-----------------------------------------
   04E6                    1405 _SchedulerBasicP__TaskBasic__runTask:
   04E6 E5 82              1406 	mov	a,dpl
   04E8 90s05r3F           1407 	mov	dptr,#_SchedulerBasicP__TaskBasic__runTask_arg_0x1a420d78_1_1
   04EB F0                 1408 	movx	@dptr,a
   04EC 90s05r3F           1409 	mov	dptr,#_SchedulerBasicP__TaskBasic__runTask_arg_0x1a420d78_1_1
   04EF E0                 1410 	movx	a,@dptr
   04F0 FA                 1411 	mov  r2,a
   04F1 24 F0              1412 	add	a,#0xff - 0x0F
   04F3 50 03              1413 	jnc	00317$
   04F5 02s10rCB           1414 	ljmp	00248$
   04F8                    1415 00317$:
   04F8 EA                 1416 	mov	a,r2
   04F9 2A                 1417 	add	a,r2
   04FA 2A                 1418 	add	a,r2
   04FB 90s04rFF           1419 	mov	dptr,#00318$
   04FE 73                 1420 	jmp	@a+dptr
   04FF                    1421 00318$:
   04FF 02s05r2F           1422 	ljmp	00101$
   0502 02s06rE1           1423 	ljmp	00121$
   0505 02s07r50           1424 	ljmp	00133$
   0508 02s0Ar93           1425 	ljmp	00148$
   050B 02s0ArE1           1426 	ljmp	00151$
   050E 02s0Br2E           1427 	ljmp	00159$
   0511 02s0Br34           1428 	ljmp	00160$
   0514 02s0Br3D           1429 	ljmp	00161$
   0517 02s0BrE2           1430 	ljmp	00171$
   051A 02s0BrEA           1431 	ljmp	00172$
   051D 02s0Cr03           1432 	ljmp	00173$
   0520 02s0ErD2           1433 	ljmp	00197$
   0523 02s0FrD7           1434 	ljmp	00230$
   0526 02s10r71           1435 	ljmp	00243$
   0529 02s10r8B           1436 	ljmp	00244$
   052C 02s10r91           1437 	ljmp	00245$
   052F                    1438 00101$:
   052F 7A 00              1439 	mov	r2,#0x00
   0531                    1440 00111$:
   0531 BA 04 00           1441 	cjne	r2,#0x04,00319$
   0534                    1442 00319$:
   0534 40 03              1443 	jc	00320$
   0536 02s06r57           1444 	ljmp	00113$
   0539                    1445 00320$:
   0539 EA                 1446 	mov	a,r2
   053A 75 F0 09           1447 	mov	b,#0x09
   053D A4                 1448 	mul	ab
   053E 24r7C              1449 	add	a,#_SCS_VTimerP__0__mTimerList
   0540 FB                 1450 	mov	r3,a
   0541 E4                 1451 	clr	a
   0542 34s00              1452 	addc	a,#(_SCS_VTimerP__0__mTimerList >> 8)
   0544 FC                 1453 	mov	r4,a
   0545 74 08              1454 	mov	a,#0x08
   0547 2B                 1455 	add	a,r3
   0548 FD                 1456 	mov	r5,a
   0549 E4                 1457 	clr	a
   054A 3C                 1458 	addc	a,r4
   054B FE                 1459 	mov	r6,a
   054C 8D 82              1460 	mov	dpl,r5
   054E 8E 83              1461 	mov	dph,r6
   0550 E0                 1462 	movx	a,@dptr
   0551 20 E1 03           1463 	jb	acc.1,00321$
   0554 02s06r53           1464 	ljmp	00110$
   0557                    1465 00321$:
   0557 C0 02              1466 	push	ar2
   0559 74 04              1467 	mov	a,#0x04
   055B 2B                 1468 	add	a,r3
   055C FD                 1469 	mov	r5,a
   055D E4                 1470 	clr	a
   055E 3C                 1471 	addc	a,r4
   055F FE                 1472 	mov	r6,a
   0560 8D 82              1473 	mov	dpl,r5
   0562 8E 83              1474 	mov	dph,r6
   0564 E0                 1475 	movx	a,@dptr
   0565 F5*00              1476 	mov	_SchedulerBasicP__TaskBasic__runTask_sloc0_1_0,a
   0567 A3                 1477 	inc	dptr
   0568 E0                 1478 	movx	a,@dptr
   0569 F5*01              1479 	mov	(_SchedulerBasicP__TaskBasic__runTask_sloc0_1_0 + 1),a
   056B A3                 1480 	inc	dptr
   056C E0                 1481 	movx	a,@dptr
   056D F5*02              1482 	mov	(_SchedulerBasicP__TaskBasic__runTask_sloc0_1_0 + 2),a
   056F A3                 1483 	inc	dptr
   0570 E0                 1484 	movx	a,@dptr
   0571 F5*03              1485 	mov	(_SchedulerBasicP__TaskBasic__runTask_sloc0_1_0 + 3),a
   0573 90s00r74           1486 	mov	dptr,#_SCS_VTimerP__0__mInterval
   0576 E0                 1487 	movx	a,@dptr
   0577 FA                 1488 	mov	r2,a
   0578 E4                 1489 	clr	a
   0579 FF                 1490 	mov	r7,a
   057A F8                 1491 	mov	r0,a
   057B F9                 1492 	mov	r1,a
   057C E5*00              1493 	mov	a,_SchedulerBasicP__TaskBasic__runTask_sloc0_1_0
   057E C3                 1494 	clr	c
   057F 9A                 1495 	subb	a,r2
   0580 FA                 1496 	mov	r2,a
   0581 E5*01              1497 	mov	a,(_SchedulerBasicP__TaskBasic__runTask_sloc0_1_0 + 1)
   0583 9F                 1498 	subb	a,r7
   0584 FF                 1499 	mov	r7,a
   0585 E5*02              1500 	mov	a,(_SchedulerBasicP__TaskBasic__runTask_sloc0_1_0 + 2)
   0587 98                 1501 	subb	a,r0
   0588 F8                 1502 	mov	r0,a
   0589 E5*03              1503 	mov	a,(_SchedulerBasicP__TaskBasic__runTask_sloc0_1_0 + 3)
   058B 99                 1504 	subb	a,r1
   058C F9                 1505 	mov	r1,a
   058D 8D 82              1506 	mov	dpl,r5
   058F 8E 83              1507 	mov	dph,r6
   0591 EA                 1508 	mov	a,r2
   0592 F0                 1509 	movx	@dptr,a
   0593 A3                 1510 	inc	dptr
   0594 EF                 1511 	mov	a,r7
   0595 F0                 1512 	movx	@dptr,a
   0596 A3                 1513 	inc	dptr
   0597 E8                 1514 	mov	a,r0
   0598 F0                 1515 	movx	@dptr,a
   0599 A3                 1516 	inc	dptr
   059A E9                 1517 	mov	a,r1
   059B F0                 1518 	movx	@dptr,a
   059C C3                 1519 	clr	c
   059D 74 02              1520 	mov	a,#0x02
   059F 9A                 1521 	subb	a,r2
   05A0 E4                 1522 	clr	a
   05A1 9F                 1523 	subb	a,r7
   05A2 E4                 1524 	clr	a
   05A3 98                 1525 	subb	a,r0
   05A4 74 80              1526 	mov	a,#(0x00 ^ 0x80)
   05A6 89 F0              1527 	mov	b,r1
   05A8 63 F0 80           1528 	xrl	b,#0x80
   05AB 95 F0              1529 	subb	a,b
   05AD E4                 1530 	clr	a
   05AE 33                 1531 	rlc	a
   05AF D0 02              1532 	pop	ar2
   05B1 60 03              1533 	jz	00322$
   05B3 02s06r53           1534 	ljmp	00110$
   05B6                    1535 00322$:
   05B6 74 08              1536 	mov	a,#0x08
   05B8 2B                 1537 	add	a,r3
   05B9 F5 82              1538 	mov	dpl,a
   05BB E4                 1539 	clr	a
   05BC 3C                 1540 	addc	a,r4
   05BD F5 83              1541 	mov	dph,a
   05BF E0                 1542 	movx	a,@dptr
   05C0 54 01              1543 	anl	a,#0x01
   05C2 FF                 1544 	mov	r7,a
   05C3 BF 01 0F           1545 	cjne	r7,#0x01,00103$
   05C6 74 08              1546 	mov	a,#0x08
   05C8 2B                 1547 	add	a,r3
   05C9 F5 82              1548 	mov	dpl,a
   05CB E4                 1549 	clr	a
   05CC 3C                 1550 	addc	a,r4
   05CD F5 83              1551 	mov	dph,a
   05CF E0                 1552 	movx	a,@dptr
   05D0 54 FD              1553 	anl	a,#0xfd
   05D2 F0                 1554 	movx	@dptr,a
   05D3 80 45              1555 	sjmp	00104$
   05D5                    1556 00103$:
   05D5 C0 02              1557 	push	ar2
   05D7 8D 82              1558 	mov	dpl,r5
   05D9 8E 83              1559 	mov	dph,r6
   05DB E0                 1560 	movx	a,@dptr
   05DC F5*00              1561 	mov	_SchedulerBasicP__TaskBasic__runTask_sloc0_1_0,a
   05DE A3                 1562 	inc	dptr
   05DF E0                 1563 	movx	a,@dptr
   05E0 F5*01              1564 	mov	(_SchedulerBasicP__TaskBasic__runTask_sloc0_1_0 + 1),a
   05E2 A3                 1565 	inc	dptr
   05E3 E0                 1566 	movx	a,@dptr
   05E4 F5*02              1567 	mov	(_SchedulerBasicP__TaskBasic__runTask_sloc0_1_0 + 2),a
   05E6 A3                 1568 	inc	dptr
   05E7 E0                 1569 	movx	a,@dptr
   05E8 F5*03              1570 	mov	(_SchedulerBasicP__TaskBasic__runTask_sloc0_1_0 + 3),a
   05EA 8B 82              1571 	mov	dpl,r3
   05EC 8C 83              1572 	mov	dph,r4
   05EE E0                 1573 	movx	a,@dptr
   05EF FB                 1574 	mov	r3,a
   05F0 A3                 1575 	inc	dptr
   05F1 E0                 1576 	movx	a,@dptr
   05F2 FC                 1577 	mov	r4,a
   05F3 A3                 1578 	inc	dptr
   05F4 E0                 1579 	movx	a,@dptr
   05F5 FA                 1580 	mov	r2,a
   05F6 A3                 1581 	inc	dptr
   05F7 E0                 1582 	movx	a,@dptr
   05F8 FF                 1583 	mov	r7,a
   05F9 EB                 1584 	mov	a,r3
   05FA 25*00              1585 	add	a,_SchedulerBasicP__TaskBasic__runTask_sloc0_1_0
   05FC FB                 1586 	mov	r3,a
   05FD EC                 1587 	mov	a,r4
   05FE 35*01              1588 	addc	a,(_SchedulerBasicP__TaskBasic__runTask_sloc0_1_0 + 1)
   0600 FC                 1589 	mov	r4,a
   0601 EA                 1590 	mov	a,r2
   0602 35*02              1591 	addc	a,(_SchedulerBasicP__TaskBasic__runTask_sloc0_1_0 + 2)
   0604 FA                 1592 	mov	r2,a
   0605 EF                 1593 	mov	a,r7
   0606 35*03              1594 	addc	a,(_SchedulerBasicP__TaskBasic__runTask_sloc0_1_0 + 3)
   0608 FF                 1595 	mov	r7,a
   0609 8D 82              1596 	mov	dpl,r5
   060B 8E 83              1597 	mov	dph,r6
   060D EB                 1598 	mov	a,r3
   060E F0                 1599 	movx	@dptr,a
   060F A3                 1600 	inc	dptr
   0610 EC                 1601 	mov	a,r4
   0611 F0                 1602 	movx	@dptr,a
   0612 A3                 1603 	inc	dptr
   0613 EA                 1604 	mov	a,r2
   0614 F0                 1605 	movx	@dptr,a
   0615 A3                 1606 	inc	dptr
   0616 EF                 1607 	mov	a,r7
   0617 F0                 1608 	movx	@dptr,a
   0618 D0 02              1609 	pop	ar2
   061A                    1610 00104$:
   061A 90s00r76           1611 	mov	dptr,#_SCS_VTimerP__0__queue_tail
   061D E0                 1612 	movx	a,@dptr
   061E FB                 1613 	mov	r3,a
   061F BB 03 06           1614 	cjne	r3,#0x03,00106$
   0622 90s00r76           1615 	mov	dptr,#_SCS_VTimerP__0__queue_tail
   0625 74 FF              1616 	mov	a,#0xFF
   0627 F0                 1617 	movx	@dptr,a
   0628                    1618 00106$:
   0628 90s00r76           1619 	mov	dptr,#_SCS_VTimerP__0__queue_tail
   062B E0                 1620 	movx	a,@dptr
   062C 90s00r76           1621 	mov	dptr,#_SCS_VTimerP__0__queue_tail
   062F 04                 1622 	inc	a
   0630 F0                 1623 	movx	@dptr,a
   0631 90s00r77           1624 	mov	dptr,#_SCS_VTimerP__0__queue_size
   0634 E0                 1625 	movx	a,@dptr
   0635 90s00r77           1626 	mov	dptr,#_SCS_VTimerP__0__queue_size
   0638 04                 1627 	inc	a
   0639 F0                 1628 	movx	@dptr,a
   063A 90s00r76           1629 	mov	dptr,#_SCS_VTimerP__0__queue_tail
   063D E0                 1630 	movx	a,@dptr
   063E 24r78              1631 	add	a,#_SCS_VTimerP__0__queue
   0640 F5 82              1632 	mov	dpl,a
   0642 E4                 1633 	clr	a
   0643 34s00              1634 	addc	a,#(_SCS_VTimerP__0__queue >> 8)
   0645 F5 83              1635 	mov	dph,a
   0647 EA                 1636 	mov	a,r2
   0648 F0                 1637 	movx	@dptr,a
   0649 75 82 01           1638 	mov	dpl,#0x01
   064C C0 02              1639 	push	ar2
   064E 12s14r48           1640 	lcall	_SchedulerBasicP__TaskBasic__postTask
   0651 D0 02              1641 	pop	ar2
   0653                    1642 00110$:
   0653 0A                 1643 	inc	r2
   0654 02s05r31           1644 	ljmp	00111$
   0657                    1645 00113$:
   0657 90s05r40           1646 	mov	dptr,#_SchedulerBasicP__TaskBasic__runTask__cil_inline_tmp_1728_1_1
   065A 74 E6              1647 	mov	a,#0xE6
   065C F0                 1648 	movx	@dptr,a
   065D 7A 00              1649 	mov	r2,#0x00
   065F                    1650 00118$:
   065F BA 04 00           1651 	cjne	r2,#0x04,00327$
   0662                    1652 00327$:
   0662 50 5E              1653 	jnc	00120$
   0664 EA                 1654 	mov	a,r2
   0665 75 F0 09           1655 	mov	b,#0x09
   0668 A4                 1656 	mul	ab
   0669 24r7C              1657 	add	a,#_SCS_VTimerP__0__mTimerList
   066B FB                 1658 	mov	r3,a
   066C E4                 1659 	clr	a
   066D 34s00              1660 	addc	a,#(_SCS_VTimerP__0__mTimerList >> 8)
   066F FC                 1661 	mov	r4,a
   0670 74 08              1662 	mov	a,#0x08
   0672 2B                 1663 	add	a,r3
   0673 FD                 1664 	mov	r5,a
   0674 E4                 1665 	clr	a
   0675 3C                 1666 	addc	a,r4
   0676 FE                 1667 	mov	r6,a
   0677 8D 82              1668 	mov	dpl,r5
   0679 8E 83              1669 	mov	dph,r6
   067B E0                 1670 	movx	a,@dptr
   067C 30 E1 40           1671 	jnb	acc.1,00117$
   067F C0 02              1672 	push	ar2
   0681 8B 82              1673 	mov	dpl,r3
   0683 8C 83              1674 	mov	dph,r4
   0685 A3                 1675 	inc	dptr
   0686 A3                 1676 	inc	dptr
   0687 A3                 1677 	inc	dptr
   0688 A3                 1678 	inc	dptr
   0689 E0                 1679 	movx	a,@dptr
   068A FB                 1680 	mov	r3,a
   068B A3                 1681 	inc	dptr
   068C E0                 1682 	movx	a,@dptr
   068D FC                 1683 	mov	r4,a
   068E A3                 1684 	inc	dptr
   068F E0                 1685 	movx	a,@dptr
   0690 FD                 1686 	mov	r5,a
   0691 A3                 1687 	inc	dptr
   0692 E0                 1688 	movx	a,@dptr
   0693 FE                 1689 	mov	r6,a
   0694 8B*00              1690 	mov	_SchedulerBasicP__TaskBasic__runTask_sloc0_1_0,r3
   0696 8C*01              1691 	mov	(_SchedulerBasicP__TaskBasic__runTask_sloc0_1_0 + 1),r4
   0698 8D*02              1692 	mov	(_SchedulerBasicP__TaskBasic__runTask_sloc0_1_0 + 2),r5
   069A 8E*03              1693 	mov	(_SchedulerBasicP__TaskBasic__runTask_sloc0_1_0 + 3),r6
   069C 90s05r40           1694 	mov	dptr,#_SchedulerBasicP__TaskBasic__runTask__cil_inline_tmp_1728_1_1
   069F E0                 1695 	movx	a,@dptr
   06A0 FA                 1696 	mov	r2,a
   06A1 7F 00              1697 	mov	r7,#0x00
   06A3 78 00              1698 	mov	r0,#0x00
   06A5 79 00              1699 	mov	r1,#0x00
   06A7 C3                 1700 	clr	c
   06A8 E5*00              1701 	mov	a,_SchedulerBasicP__TaskBasic__runTask_sloc0_1_0
   06AA 9A                 1702 	subb	a,r2
   06AB E5*01              1703 	mov	a,(_SchedulerBasicP__TaskBasic__runTask_sloc0_1_0 + 1)
   06AD 9F                 1704 	subb	a,r7
   06AE E5*02              1705 	mov	a,(_SchedulerBasicP__TaskBasic__runTask_sloc0_1_0 + 2)
   06B0 98                 1706 	subb	a,r0
   06B1 E5*03              1707 	mov	a,(_SchedulerBasicP__TaskBasic__runTask_sloc0_1_0 + 3)
   06B3 99                 1708 	subb	a,r1
   06B4 E4                 1709 	clr	a
   06B5 33                 1710 	rlc	a
   06B6 D0 02              1711 	pop	ar2
   06B8 60 05              1712 	jz	00117$
   06BA 90s05r40           1713 	mov	dptr,#_SchedulerBasicP__TaskBasic__runTask__cil_inline_tmp_1728_1_1
   06BD EB                 1714 	mov	a,r3
   06BE F0                 1715 	movx	@dptr,a
   06BF                    1716 00117$:
   06BF 0A                 1717 	inc	r2
   06C0 80 9D              1718 	sjmp	00118$
   06C2                    1719 00120$:
   06C2 A2 AF              1720 	mov	c,_EA
   06C4 E4                 1721 	clr	a
   06C5 33                 1722 	rlc	a
   06C6 FA                 1723 	mov	r2,a
   06C7 C2 AF              1724 	clr	_EA
   06C9 90s05r40           1725 	mov	dptr,#_SchedulerBasicP__TaskBasic__runTask__cil_inline_tmp_1728_1_1
   06CC E0                 1726 	movx	a,@dptr
   06CD FB                 1727 	mov	r3,a
   06CE 90s00r74           1728 	mov	dptr,#_SCS_VTimerP__0__mInterval
   06D1 F0                 1729 	movx	@dptr,a
   06D2 8B 82              1730 	mov	dpl,r3
   06D4 C0 02              1731 	push	ar2
   06D6 12s1BrB8           1732 	lcall	_HplSCS_Clock_Timer1P__Alarm__start
   06D9 D0 02              1733 	pop	ar2
   06DB EA                 1734 	mov	a,r2
   06DC 24 FF              1735 	add	a,#0xff
   06DE 92 AF              1736 	mov	_EA,c
   06E0 22                 1737 	ret
   06E1                    1738 00121$:
   06E1 90s00r77           1739 	mov	dptr,#_SCS_VTimerP__0__queue_size
   06E4 E0                 1740 	movx	a,@dptr
   06E5 FA                 1741 	mov	r2,a
   06E6 70 08              1742 	jnz	00123$
   06E8 90s05r41           1743 	mov	dptr,#_SchedulerBasicP__TaskBasic__runTask__cil_inline_tmp_1737_1_1
   06EB 74 04              1744 	mov	a,#0x04
   06ED F0                 1745 	movx	@dptr,a
   06EE 80 31              1746 	sjmp	00126$
   06F0                    1747 00123$:
   06F0 90s00r75           1748 	mov	dptr,#_SCS_VTimerP__0__queue_head
   06F3 E0                 1749 	movx	a,@dptr
   06F4 FB                 1750 	mov	r3,a
   06F5 BB 03 06           1751 	cjne	r3,#0x03,00125$
   06F8 90s00r75           1752 	mov	dptr,#_SCS_VTimerP__0__queue_head
   06FB 74 FF              1753 	mov	a,#0xFF
   06FD F0                 1754 	movx	@dptr,a
   06FE                    1755 00125$:
   06FE 90s00r75           1756 	mov	dptr,#_SCS_VTimerP__0__queue_head
   0701 E0                 1757 	movx	a,@dptr
   0702 FB                 1758 	mov	r3,a
   0703 90s00r75           1759 	mov	dptr,#_SCS_VTimerP__0__queue_head
   0706 04                 1760 	inc	a
   0707 F0                 1761 	movx	@dptr,a
   0708 EA                 1762 	mov	a,r2
   0709 14                 1763 	dec	a
   070A 90s00r77           1764 	mov	dptr,#_SCS_VTimerP__0__queue_size
   070D F0                 1765 	movx	@dptr,a
   070E 90s00r75           1766 	mov	dptr,#_SCS_VTimerP__0__queue_head
   0711 E0                 1767 	movx	a,@dptr
   0712 24r78              1768 	add	a,#_SCS_VTimerP__0__queue
   0714 F5 82              1769 	mov	dpl,a
   0716 E4                 1770 	clr	a
   0717 34s00              1771 	addc	a,#(_SCS_VTimerP__0__queue >> 8)
   0719 F5 83              1772 	mov	dph,a
   071B E0                 1773 	movx	a,@dptr
   071C FA                 1774 	mov	r2,a
   071D 90s05r41           1775 	mov	dptr,#_SchedulerBasicP__TaskBasic__runTask__cil_inline_tmp_1737_1_1
   0720 F0                 1776 	movx	@dptr,a
   0721                    1777 00126$:
   0721 90s05r41           1778 	mov	dptr,#_SchedulerBasicP__TaskBasic__runTask__cil_inline_tmp_1737_1_1
   0724 E0                 1779 	movx	a,@dptr
   0725 FA                 1780 	mov	r2,a
   0726 BA 04 00           1781 	cjne	r2,#0x04,00334$
   0729                    1782 00334$:
   0729 40 01              1783 	jc	00335$
   072B 22                 1784 	ret
   072C                    1785 00335$:
   072C 7B 00              1786 	mov	r3,#0x00
   072E BA 00 05           1787 	cjne	r2,#0x00,00336$
   0731 BB 00 02           1788 	cjne	r3,#0x00,00336$
   0734 80 11              1789 	sjmp	00127$
   0736                    1790 00336$:
   0736 BA 02 05           1791 	cjne	r2,#0x02,00337$
   0739 BB 00 02           1792 	cjne	r3,#0x00,00337$
   073C 80 0C              1793 	sjmp	00128$
   073E                    1794 00337$:
   073E BA 03 05           1795 	cjne	r2,#0x03,00338$
   0741 BB 00 02           1796 	cjne	r3,#0x00,00338$
   0744 80 07              1797 	sjmp	00129$
   0746                    1798 00338$:
   0746 22                 1799 	ret
   0747                    1800 00127$:
   0747 02s18rF2           1801 	ljmp	_Adhoc_APPM__Timer__fired
   074A                    1802 00128$:
   074A 02s18rDE           1803 	ljmp	_HAL_CC2430ControlM__TX_TimeOut__fired
   074D                    1804 00129$:
   074D 02s18rC6           1805 	ljmp	_HAL_CC2430ControlM__ACK_TimeOut__fired
   0750                    1806 00133$:
   0750 90s05r8F           1807 	mov	dptr,#_CC2430ActiveMessageM__Packet__getPayload_PARM_2
   0753 E4                 1808 	clr	a
   0754 F0                 1809 	movx	@dptr,a
   0755 A3                 1810 	inc	dptr
   0756 F0                 1811 	movx	@dptr,a
   0757 A3                 1812 	inc	dptr
   0758 F0                 1813 	movx	@dptr,a
   0759 90s00rD0           1814 	mov	dptr,#_FloodingM__RecvMsg
   075C 75 F0 00           1815 	mov	b,#0x00
   075F 12s15r7A           1816 	lcall	_CC2430ActiveMessageM__Packet__getPayload
   0762 AA 82              1817 	mov	r2,dpl
   0764 AB 83              1818 	mov	r3,dph
   0766 AC F0              1819 	mov	r4,b
   0768 90s00r00           1820 	mov	dptr,#_memcpy_PARM_2
   076B EA                 1821 	mov	a,r2
   076C F0                 1822 	movx	@dptr,a
   076D A3                 1823 	inc	dptr
   076E EB                 1824 	mov	a,r3
   076F F0                 1825 	movx	@dptr,a
   0770 A3                 1826 	inc	dptr
   0771 EC                 1827 	mov	a,r4
   0772 F0                 1828 	movx	@dptr,a
   0773 90s00r00           1829 	mov	dptr,#_memcpy_PARM_3
   0776 74 18              1830 	mov	a,#0x18
   0778 F0                 1831 	movx	@dptr,a
   0779 E4                 1832 	clr	a
   077A A3                 1833 	inc	dptr
   077B F0                 1834 	movx	@dptr,a
   077C 90s01rF0           1835 	mov	dptr,#_FloodingM__NWKF
   077F 75 F0 00           1836 	mov	b,#0x00
   0782 12s00r00           1837 	lcall	_memcpy
   0785 90s05r42           1838 	mov	dptr,#_SchedulerBasicP__TaskBasic__runTask__cil_inline_tmp_1764_1_1
   0788 74rFC              1839 	mov	a,#(_FloodingM__NWKF + 0x000c)
   078A F0                 1840 	movx	@dptr,a
   078B A3                 1841 	inc	dptr
   078C 74s01              1842 	mov	a,#((_FloodingM__NWKF + 0x000c) >> 8)
   078E F0                 1843 	movx	@dptr,a
   078F A3                 1844 	inc	dptr
   0790 E4                 1845 	clr	a
   0791 F0                 1846 	movx	@dptr,a
   0792 90s00r00           1847 	mov	dptr,#_TOS_NODE_ID
   0795 E0                 1848 	movx	a,@dptr
   0796 FA                 1849 	mov	r2,a
   0797 A3                 1850 	inc	dptr
   0798 E0                 1851 	movx	a,@dptr
   0799 FB                 1852 	mov	r3,a
   079A 4A                 1853 	orl	a,r2
   079B 60 01              1854 	jz	00339$
   079D 22                 1855 	ret
   079E                    1856 00339$:
   079E 90s00r42           1857 	mov	dptr,#_Adhoc_APPM__Serial_MSG
   07A1 75 F0 00           1858 	mov	b,#0x00
   07A4 12s1Ar92           1859 	lcall	_FloodingM__SendFromAPP__getPayload
   07A7 AA 82              1860 	mov	r2,dpl
   07A9 AB 83              1861 	mov	r3,dph
   07AB AC F0              1862 	mov	r4,b
   07AD 90s05r42           1863 	mov	dptr,#_SchedulerBasicP__TaskBasic__runTask__cil_inline_tmp_1764_1_1
   07B0 E0                 1864 	movx	a,@dptr
   07B1 FD                 1865 	mov	r5,a
   07B2 A3                 1866 	inc	dptr
   07B3 E0                 1867 	movx	a,@dptr
   07B4 FE                 1868 	mov	r6,a
   07B5 A3                 1869 	inc	dptr
   07B6 E0                 1870 	movx	a,@dptr
   07B7 FF                 1871 	mov	r7,a
   07B8 90s00r00           1872 	mov	dptr,#_memcpy_PARM_2
   07BB ED                 1873 	mov	a,r5
   07BC F0                 1874 	movx	@dptr,a
   07BD A3                 1875 	inc	dptr
   07BE EE                 1876 	mov	a,r6
   07BF F0                 1877 	movx	@dptr,a
   07C0 A3                 1878 	inc	dptr
   07C1 EF                 1879 	mov	a,r7
   07C2 F0                 1880 	movx	@dptr,a
   07C3 90s00r00           1881 	mov	dptr,#_memcpy_PARM_3
   07C6 74 0C              1882 	mov	a,#0x0C
   07C8 F0                 1883 	movx	@dptr,a
   07C9 E4                 1884 	clr	a
   07CA A3                 1885 	inc	dptr
   07CB F0                 1886 	movx	@dptr,a
   07CC 8A 82              1887 	mov	dpl,r2
   07CE 8B 83              1888 	mov	dph,r3
   07D0 8C F0              1889 	mov	b,r4
   07D2 C0 02              1890 	push	ar2
   07D4 C0 03              1891 	push	ar3
   07D6 C0 04              1892 	push	ar4
   07D8 12s00r00           1893 	lcall	_memcpy
   07DB D0 04              1894 	pop	ar4
   07DD D0 03              1895 	pop	ar3
   07DF D0 02              1896 	pop	ar2
   07E1 74 02              1897 	mov	a,#0x02
   07E3 2A                 1898 	add	a,r2
   07E4 FA                 1899 	mov	r2,a
   07E5 E4                 1900 	clr	a
   07E6 3B                 1901 	addc	a,r3
   07E7 FB                 1902 	mov	r3,a
   07E8 8A 82              1903 	mov	dpl,r2
   07EA 8B 83              1904 	mov	dph,r3
   07EC 8C F0              1905 	mov	b,r4
   07EE 12s00r00           1906 	lcall	__gptrget
   07F1 FA                 1907 	mov	r2,a
   07F2 A3                 1908 	inc	dptr
   07F3 12s00r00           1909 	lcall	__gptrget
   07F6 FB                 1910 	mov	r3,a
   07F7 90s00r48           1911 	mov	dptr,#(_Adhoc_APPM__Serial_MSG + 0x0006)
   07FA 75 F0 00           1912 	mov	b,#0x00
   07FD EA                 1913 	mov	a,r2
   07FE 12s00r00           1914 	lcall	__gptrput
   0801 A3                 1915 	inc	dptr
   0802 EB                 1916 	mov	a,r3
   0803 12s00r00           1917 	lcall	__gptrput
   0806 90s05r0A           1918 	mov	dptr,#_SerialActiveMessageP__0__SendProcessing
   0809 74 01              1919 	mov	a,#0x01
   080B F0                 1920 	movx	@dptr,a
   080C 90s05r50           1921 	mov	dptr,#_SchedulerBasicP__TaskBasic__runTask__cil_inline_tmp_1819_1_1
   080F E4                 1922 	clr	a
   0810 F0                 1923 	movx	@dptr,a
   0811 A3                 1924 	inc	dptr
   0812 F0                 1925 	movx	@dptr,a
   0813 90s05r50           1926 	mov	dptr,#_SchedulerBasicP__TaskBasic__runTask__cil_inline_tmp_1819_1_1
   0816 E0                 1927 	movx	a,@dptr
   0817 FB                 1928 	mov	r3,a
   0818 7A 00              1929 	mov	r2,#0x00
   081A 90s05r51           1930 	mov	dptr,#(_SchedulerBasicP__TaskBasic__runTask__cil_inline_tmp_1819_1_1 + 0x0001)
   081D 75 F0 00           1931 	mov	b,#0x00
   0820 12s00r00           1932 	lcall	__gptrget
   0823 7D 00              1933 	mov	r5,#0x00
   0825 42 02              1934 	orl	ar2,a
   0827 ED                 1935 	mov	a,r5
   0828 42 03              1936 	orl	ar3,a
   082A 90s00r46           1937 	mov	dptr,#(_Adhoc_APPM__Serial_MSG + 0x0004)
   082D 75 F0 00           1938 	mov	b,#0x00
   0830 EA                 1939 	mov	a,r2
   0831 12s00r00           1940 	lcall	__gptrput
   0834 A3                 1941 	inc	dptr
   0835 EB                 1942 	mov	a,r3
   0836 12s00r00           1943 	lcall	__gptrput
   0839 90s00r4B           1944 	mov	dptr,#(_Adhoc_APPM__Serial_MSG + 0x0009)
   083C E4                 1945 	clr	a
   083D F5 F0              1946 	mov	b,a
   083F 12s00r00           1947 	lcall	__gptrput
   0842 90s00r4C           1948 	mov	dptr,#(_Adhoc_APPM__Serial_MSG + 0x000a)
   0845 75 F0 00           1949 	mov	b,#0x00
   0848 74 0A              1950 	mov	a,#0x0A
   084A 12s00r00           1951 	lcall	__gptrput
   084D 90s00r4A           1952 	mov	dptr,#(_Adhoc_APPM__Serial_MSG + 0x0008)
   0850 75 F0 00           1953 	mov	b,#0x00
   0853 74 0C              1954 	mov	a,#0x0C
   0855 12s00r00           1955 	lcall	__gptrput
   0858 90s04r8B           1956 	mov	dptr,#_SerialActiveMessageP__0__SendBuff
   085B 74 7E              1957 	mov	a,#0x7E
   085D F0                 1958 	movx	@dptr,a
   085E 90s04r8C           1959 	mov	dptr,#(_SerialActiveMessageP__0__SendBuff + 0x0001)
   0861 74 45              1960 	mov	a,#0x45
   0863 F0                 1961 	movx	@dptr,a
   0864 90s06r09           1962 	mov	dptr,#_crcByte_PARM_2
   0867 74 45              1963 	mov	a,#0x45
   0869 F0                 1964 	movx	@dptr,a
   086A 90 00 00           1965 	mov	dptr,#0x0000
   086D 12s1Cr64           1966 	lcall	_crcByte
   0870 AA 82              1967 	mov	r2,dpl
   0872 AB 83              1968 	mov	r3,dph
   0874 90s05r45           1969 	mov	dptr,#_SchedulerBasicP__TaskBasic__runTask__cil_inline_tmp_1799_1_1
   0877 74 03              1970 	mov	a,#0x03
   0879 F0                 1971 	movx	@dptr,a
   087A 90s04r8D           1972 	mov	dptr,#(_SerialActiveMessageP__0__SendBuff + 0x0002)
   087D E4                 1973 	clr	a
   087E F0                 1974 	movx	@dptr,a
   087F 90s06r09           1975 	mov	dptr,#_crcByte_PARM_2
   0882 F0                 1976 	movx	@dptr,a
   0883 8A 82              1977 	mov	dpl,r2
   0885 8B 83              1978 	mov	dph,r3
   0887 12s1Cr64           1979 	lcall	_crcByte
   088A E5 82              1980 	mov	a,dpl
   088C 85 83 F0           1981 	mov	b,dph
   088F 90s05r46           1982 	mov	dptr,#_SchedulerBasicP__TaskBasic__runTask__cil_inline_tmp_1803_1_1
   0892 F0                 1983 	movx	@dptr,a
   0893 A3                 1984 	inc	dptr
   0894 E5 F0              1985 	mov	a,b
   0896 F0                 1986 	movx	@dptr,a
   0897 7A 00              1987 	mov	r2,#0x00
   0899                    1988 00140$:
   0899 BA 13 00           1989 	cjne	r2,#0x13,00340$
   089C                    1990 00340$:
   089C 40 03              1991 	jc	00341$
   089E 02s0Ar09           1992 	ljmp	00142$
   08A1                    1993 00341$:
   08A1 EA                 1994 	mov	a,r2
   08A2 24r46              1995 	add	a,#(_Adhoc_APPM__Serial_MSG + 0x0004)
   08A4 FB                 1996 	mov	r3,a
   08A5 E4                 1997 	clr	a
   08A6 34s00              1998 	addc	a,#((_Adhoc_APPM__Serial_MSG + 0x0004) >> 8)
   08A8 FC                 1999 	mov	r4,a
   08A9 7D 00              2000 	mov	r5,#0x00
   08AB 8B 82              2001 	mov	dpl,r3
   08AD 8C 83              2002 	mov	dph,r4
   08AF 8D F0              2003 	mov	b,r5
   08B1 12s00r00           2004 	lcall	__gptrget
   08B4 FB                 2005 	mov	r3,a
   08B5 BB 7D 67           2006 	cjne	r3,#0x7D,00138$
   08B8 90s05r45           2007 	mov	dptr,#_SchedulerBasicP__TaskBasic__runTask__cil_inline_tmp_1799_1_1
   08BB E0                 2008 	movx	a,@dptr
   08BC FB                 2009 	mov	r3,a
   08BD 90s05r48           2010 	mov	dptr,#_SchedulerBasicP__TaskBasic__runTask__cil_inline_tmp_1807_1_1
   08C0 F0                 2011 	movx	@dptr,a
   08C1 90s05r45           2012 	mov	dptr,#_SchedulerBasicP__TaskBasic__runTask__cil_inline_tmp_1799_1_1
   08C4 EB                 2013 	mov	a,r3
   08C5 04                 2014 	inc	a
   08C6 F0                 2015 	movx	@dptr,a
   08C7 90s05r48           2016 	mov	dptr,#_SchedulerBasicP__TaskBasic__runTask__cil_inline_tmp_1807_1_1
   08CA E0                 2017 	movx	a,@dptr
   08CB 24r8B              2018 	add	a,#_SerialActiveMessageP__0__SendBuff
   08CD F5 82              2019 	mov	dpl,a
   08CF E4                 2020 	clr	a
   08D0 34s04              2021 	addc	a,#(_SerialActiveMessageP__0__SendBuff >> 8)
   08D2 F5 83              2022 	mov	dph,a
   08D4 74 7D              2023 	mov	a,#0x7D
   08D6 F0                 2024 	movx	@dptr,a
   08D7 90s05r45           2025 	mov	dptr,#_SchedulerBasicP__TaskBasic__runTask__cil_inline_tmp_1799_1_1
   08DA E0                 2026 	movx	a,@dptr
   08DB FB                 2027 	mov	r3,a
   08DC 90s05r49           2028 	mov	dptr,#_SchedulerBasicP__TaskBasic__runTask__cil_inline_tmp_1808_1_1
   08DF F0                 2029 	movx	@dptr,a
   08E0 90s05r45           2030 	mov	dptr,#_SchedulerBasicP__TaskBasic__runTask__cil_inline_tmp_1799_1_1
   08E3 EB                 2031 	mov	a,r3
   08E4 04                 2032 	inc	a
   08E5 F0                 2033 	movx	@dptr,a
   08E6 90s05r49           2034 	mov	dptr,#_SchedulerBasicP__TaskBasic__runTask__cil_inline_tmp_1808_1_1
   08E9 E0                 2035 	movx	a,@dptr
   08EA 24r8B              2036 	add	a,#_SerialActiveMessageP__0__SendBuff
   08EC F5 82              2037 	mov	dpl,a
   08EE E4                 2038 	clr	a
   08EF 34s04              2039 	addc	a,#(_SerialActiveMessageP__0__SendBuff >> 8)
   08F1 F5 83              2040 	mov	dph,a
   08F3 74 5D              2041 	mov	a,#0x5D
   08F5 F0                 2042 	movx	@dptr,a
   08F6 90s05r46           2043 	mov	dptr,#_SchedulerBasicP__TaskBasic__runTask__cil_inline_tmp_1803_1_1
   08F9 E0                 2044 	movx	a,@dptr
   08FA FB                 2045 	mov	r3,a
   08FB A3                 2046 	inc	dptr
   08FC E0                 2047 	movx	a,@dptr
   08FD FC                 2048 	mov	r4,a
   08FE 90s06r09           2049 	mov	dptr,#_crcByte_PARM_2
   0901 74 7D              2050 	mov	a,#0x7D
   0903 F0                 2051 	movx	@dptr,a
   0904 8B 82              2052 	mov	dpl,r3
   0906 8C 83              2053 	mov	dph,r4
   0908 C0 02              2054 	push	ar2
   090A 12s1Cr64           2055 	lcall	_crcByte
   090D E5 82              2056 	mov	a,dpl
   090F 85 83 F0           2057 	mov	b,dph
   0912 D0 02              2058 	pop	ar2
   0914 90s05r46           2059 	mov	dptr,#_SchedulerBasicP__TaskBasic__runTask__cil_inline_tmp_1803_1_1
   0917 F0                 2060 	movx	@dptr,a
   0918 A3                 2061 	inc	dptr
   0919 E5 F0              2062 	mov	a,b
   091B F0                 2063 	movx	@dptr,a
   091C 02s0Ar05           2064 	ljmp	00139$
   091F                    2065 00138$:
   091F EA                 2066 	mov	a,r2
   0920 24r46              2067 	add	a,#(_Adhoc_APPM__Serial_MSG + 0x0004)
   0922 FB                 2068 	mov	r3,a
   0923 E4                 2069 	clr	a
   0924 34s00              2070 	addc	a,#((_Adhoc_APPM__Serial_MSG + 0x0004) >> 8)
   0926 FC                 2071 	mov	r4,a
   0927 7D 00              2072 	mov	r5,#0x00
   0929 8B 82              2073 	mov	dpl,r3
   092B 8C 83              2074 	mov	dph,r4
   092D 8D F0              2075 	mov	b,r5
   092F 12s00r00           2076 	lcall	__gptrget
   0932 FB                 2077 	mov	r3,a
   0933 BB 7E 66           2078 	cjne	r3,#0x7E,00135$
   0936 90s05r45           2079 	mov	dptr,#_SchedulerBasicP__TaskBasic__runTask__cil_inline_tmp_1799_1_1
   0939 E0                 2080 	movx	a,@dptr
   093A FB                 2081 	mov	r3,a
   093B 90s05r4A           2082 	mov	dptr,#_SchedulerBasicP__TaskBasic__runTask__cil_inline_tmp_1809_1_1
   093E F0                 2083 	movx	@dptr,a
   093F 90s05r45           2084 	mov	dptr,#_SchedulerBasicP__TaskBasic__runTask__cil_inline_tmp_1799_1_1
   0942 EB                 2085 	mov	a,r3
   0943 04                 2086 	inc	a
   0944 F0                 2087 	movx	@dptr,a
   0945 90s05r4A           2088 	mov	dptr,#_SchedulerBasicP__TaskBasic__runTask__cil_inline_tmp_1809_1_1
   0948 E0                 2089 	movx	a,@dptr
   0949 24r8B              2090 	add	a,#_SerialActiveMessageP__0__SendBuff
   094B F5 82              2091 	mov	dpl,a
   094D E4                 2092 	clr	a
   094E 34s04              2093 	addc	a,#(_SerialActiveMessageP__0__SendBuff >> 8)
   0950 F5 83              2094 	mov	dph,a
   0952 74 7D              2095 	mov	a,#0x7D
   0954 F0                 2096 	movx	@dptr,a
   0955 90s05r45           2097 	mov	dptr,#_SchedulerBasicP__TaskBasic__runTask__cil_inline_tmp_1799_1_1
   0958 E0                 2098 	movx	a,@dptr
   0959 FB                 2099 	mov	r3,a
   095A 90s05r4B           2100 	mov	dptr,#_SchedulerBasicP__TaskBasic__runTask__cil_inline_tmp_1810_1_1
   095D F0                 2101 	movx	@dptr,a
   095E 90s05r45           2102 	mov	dptr,#_SchedulerBasicP__TaskBasic__runTask__cil_inline_tmp_1799_1_1
   0961 EB                 2103 	mov	a,r3
   0962 04                 2104 	inc	a
   0963 F0                 2105 	movx	@dptr,a
   0964 90s05r4B           2106 	mov	dptr,#_SchedulerBasicP__TaskBasic__runTask__cil_inline_tmp_1810_1_1
   0967 E0                 2107 	movx	a,@dptr
   0968 24r8B              2108 	add	a,#_SerialActiveMessageP__0__SendBuff
   096A F5 82              2109 	mov	dpl,a
   096C E4                 2110 	clr	a
   096D 34s04              2111 	addc	a,#(_SerialActiveMessageP__0__SendBuff >> 8)
   096F F5 83              2112 	mov	dph,a
   0971 74 5E              2113 	mov	a,#0x5E
   0973 F0                 2114 	movx	@dptr,a
   0974 90s05r46           2115 	mov	dptr,#_SchedulerBasicP__TaskBasic__runTask__cil_inline_tmp_1803_1_1
   0977 E0                 2116 	movx	a,@dptr
   0978 FB                 2117 	mov	r3,a
   0979 A3                 2118 	inc	dptr
   097A E0                 2119 	movx	a,@dptr
   097B FC                 2120 	mov	r4,a
   097C 90s06r09           2121 	mov	dptr,#_crcByte_PARM_2
   097F 74 7E              2122 	mov	a,#0x7E
   0981 F0                 2123 	movx	@dptr,a
   0982 8B 82              2124 	mov	dpl,r3
   0984 8C 83              2125 	mov	dph,r4
   0986 C0 02              2126 	push	ar2
   0988 12s1Cr64           2127 	lcall	_crcByte
   098B E5 82              2128 	mov	a,dpl
   098D 85 83 F0           2129 	mov	b,dph
   0990 D0 02              2130 	pop	ar2
   0992 90s05r46           2131 	mov	dptr,#_SchedulerBasicP__TaskBasic__runTask__cil_inline_tmp_1803_1_1
   0995 F0                 2132 	movx	@dptr,a
   0996 A3                 2133 	inc	dptr
   0997 E5 F0              2134 	mov	a,b
   0999 F0                 2135 	movx	@dptr,a
   099A 80 69              2136 	sjmp	00139$
   099C                    2137 00135$:
   099C 90s05r45           2138 	mov	dptr,#_SchedulerBasicP__TaskBasic__runTask__cil_inline_tmp_1799_1_1
   099F E0                 2139 	movx	a,@dptr
   09A0 FB                 2140 	mov	r3,a
   09A1 90s05r4C           2141 	mov	dptr,#_SchedulerBasicP__TaskBasic__runTask__cil_inline_tmp_1811_1_1
   09A4 F0                 2142 	movx	@dptr,a
   09A5 90s05r45           2143 	mov	dptr,#_SchedulerBasicP__TaskBasic__runTask__cil_inline_tmp_1799_1_1
   09A8 EB                 2144 	mov	a,r3
   09A9 04                 2145 	inc	a
   09AA F0                 2146 	movx	@dptr,a
   09AB 90s05r4C           2147 	mov	dptr,#_SchedulerBasicP__TaskBasic__runTask__cil_inline_tmp_1811_1_1
   09AE E0                 2148 	movx	a,@dptr
   09AF 24r8B              2149 	add	a,#_SerialActiveMessageP__0__SendBuff
   09B1 FB                 2150 	mov	r3,a
   09B2 E4                 2151 	clr	a
   09B3 34s04              2152 	addc	a,#(_SerialActiveMessageP__0__SendBuff >> 8)
   09B5 FC                 2153 	mov	r4,a
   09B6 EA                 2154 	mov	a,r2
   09B7 24r46              2155 	add	a,#(_Adhoc_APPM__Serial_MSG + 0x0004)
   09B9 FD                 2156 	mov	r5,a
   09BA E4                 2157 	clr	a
   09BB 34s00              2158 	addc	a,#((_Adhoc_APPM__Serial_MSG + 0x0004) >> 8)
   09BD FE                 2159 	mov	r6,a
   09BE 7F 00              2160 	mov	r7,#0x00
   09C0 8D 82              2161 	mov	dpl,r5
   09C2 8E 83              2162 	mov	dph,r6
   09C4 8F F0              2163 	mov	b,r7
   09C6 12s00r00           2164 	lcall	__gptrget
   09C9 8B 82              2165 	mov	dpl,r3
   09CB 8C 83              2166 	mov	dph,r4
   09CD F0                 2167 	movx	@dptr,a
   09CE 90s05r46           2168 	mov	dptr,#_SchedulerBasicP__TaskBasic__runTask__cil_inline_tmp_1803_1_1
   09D1 E0                 2169 	movx	a,@dptr
   09D2 FB                 2170 	mov	r3,a
   09D3 A3                 2171 	inc	dptr
   09D4 E0                 2172 	movx	a,@dptr
   09D5 FC                 2173 	mov	r4,a
   09D6 EA                 2174 	mov	a,r2
   09D7 24r46              2175 	add	a,#(_Adhoc_APPM__Serial_MSG + 0x0004)
   09D9 FD                 2176 	mov	r5,a
   09DA E4                 2177 	clr	a
   09DB 34s00              2178 	addc	a,#((_Adhoc_APPM__Serial_MSG + 0x0004) >> 8)
   09DD FE                 2179 	mov	r6,a
   09DE 7F 00              2180 	mov	r7,#0x00
   09E0 8D 82              2181 	mov	dpl,r5
   09E2 8E 83              2182 	mov	dph,r6
   09E4 8F F0              2183 	mov	b,r7
   09E6 12s00r00           2184 	lcall	__gptrget
   09E9 90s06r09           2185 	mov	dptr,#_crcByte_PARM_2
   09EC F0                 2186 	movx	@dptr,a
   09ED 8B 82              2187 	mov	dpl,r3
   09EF 8C 83              2188 	mov	dph,r4
   09F1 C0 02              2189 	push	ar2
   09F3 12s1Cr64           2190 	lcall	_crcByte
   09F6 E5 82              2191 	mov	a,dpl
   09F8 85 83 F0           2192 	mov	b,dph
   09FB D0 02              2193 	pop	ar2
   09FD 90s05r46           2194 	mov	dptr,#_SchedulerBasicP__TaskBasic__runTask__cil_inline_tmp_1803_1_1
   0A00 F0                 2195 	movx	@dptr,a
   0A01 A3                 2196 	inc	dptr
   0A02 E5 F0              2197 	mov	a,b
   0A04 F0                 2198 	movx	@dptr,a
   0A05                    2199 00139$:
   0A05 0A                 2200 	inc	r2
   0A06 02s08r99           2201 	ljmp	00140$
   0A09                    2202 00142$:
   0A09 90s05r45           2203 	mov	dptr,#_SchedulerBasicP__TaskBasic__runTask__cil_inline_tmp_1799_1_1
   0A0C E0                 2204 	movx	a,@dptr
   0A0D FA                 2205 	mov	r2,a
   0A0E 90s05r4D           2206 	mov	dptr,#_SchedulerBasicP__TaskBasic__runTask__cil_inline_tmp_1812_1_1
   0A11 F0                 2207 	movx	@dptr,a
   0A12 90s05r45           2208 	mov	dptr,#_SchedulerBasicP__TaskBasic__runTask__cil_inline_tmp_1799_1_1
   0A15 EA                 2209 	mov	a,r2
   0A16 04                 2210 	inc	a
   0A17 F0                 2211 	movx	@dptr,a
   0A18 90s05r4D           2212 	mov	dptr,#_SchedulerBasicP__TaskBasic__runTask__cil_inline_tmp_1812_1_1
   0A1B E0                 2213 	movx	a,@dptr
   0A1C 24r8B              2214 	add	a,#_SerialActiveMessageP__0__SendBuff
   0A1E FA                 2215 	mov	r2,a
   0A1F E4                 2216 	clr	a
   0A20 34s04              2217 	addc	a,#(_SerialActiveMessageP__0__SendBuff >> 8)
   0A22 FB                 2218 	mov	r3,a
   0A23 90s05r46           2219 	mov	dptr,#_SchedulerBasicP__TaskBasic__runTask__cil_inline_tmp_1803_1_1
   0A26 E0                 2220 	movx	a,@dptr
   0A27 FC                 2221 	mov	r4,a
   0A28 A3                 2222 	inc	dptr
   0A29 E0                 2223 	movx	a,@dptr
   0A2A FD                 2224 	mov	r5,a
   0A2B 8C 06              2225 	mov	ar6,r4
   0A2D 8A 82              2226 	mov	dpl,r2
   0A2F 8B 83              2227 	mov	dph,r3
   0A31 EE                 2228 	mov	a,r6
   0A32 F0                 2229 	movx	@dptr,a
   0A33 90s05r45           2230 	mov	dptr,#_SchedulerBasicP__TaskBasic__runTask__cil_inline_tmp_1799_1_1
   0A36 E0                 2231 	movx	a,@dptr
   0A37 FA                 2232 	mov	r2,a
   0A38 90s05r4E           2233 	mov	dptr,#_SchedulerBasicP__TaskBasic__runTask__cil_inline_tmp_1813_1_1
   0A3B F0                 2234 	movx	@dptr,a
   0A3C 90s05r45           2235 	mov	dptr,#_SchedulerBasicP__TaskBasic__runTask__cil_inline_tmp_1799_1_1
   0A3F EA                 2236 	mov	a,r2
   0A40 04                 2237 	inc	a
   0A41 F0                 2238 	movx	@dptr,a
   0A42 90s05r4E           2239 	mov	dptr,#_SchedulerBasicP__TaskBasic__runTask__cil_inline_tmp_1813_1_1
   0A45 E0                 2240 	movx	a,@dptr
   0A46 24r8B              2241 	add	a,#_SerialActiveMessageP__0__SendBuff
   0A48 F5 82              2242 	mov	dpl,a
   0A4A E4                 2243 	clr	a
   0A4B 34s04              2244 	addc	a,#(_SerialActiveMessageP__0__SendBuff >> 8)
   0A4D F5 83              2245 	mov	dph,a
   0A4F 8D 04              2246 	mov	ar4,r5
   0A51 EC                 2247 	mov	a,r4
   0A52 F0                 2248 	movx	@dptr,a
   0A53 90s05r45           2249 	mov	dptr,#_SchedulerBasicP__TaskBasic__runTask__cil_inline_tmp_1799_1_1
   0A56 E0                 2250 	movx	a,@dptr
   0A57 FA                 2251 	mov	r2,a
   0A58 90s05r4F           2252 	mov	dptr,#_SchedulerBasicP__TaskBasic__runTask__cil_inline_tmp_1814_1_1
   0A5B F0                 2253 	movx	@dptr,a
   0A5C 90s05r45           2254 	mov	dptr,#_SchedulerBasicP__TaskBasic__runTask__cil_inline_tmp_1799_1_1
   0A5F EA                 2255 	mov	a,r2
   0A60 04                 2256 	inc	a
   0A61 F0                 2257 	movx	@dptr,a
   0A62 90s05r4F           2258 	mov	dptr,#_SchedulerBasicP__TaskBasic__runTask__cil_inline_tmp_1814_1_1
   0A65 E0                 2259 	movx	a,@dptr
   0A66 24r8B              2260 	add	a,#_SerialActiveMessageP__0__SendBuff
   0A68 F5 82              2261 	mov	dpl,a
   0A6A E4                 2262 	clr	a
   0A6B 34s04              2263 	addc	a,#(_SerialActiveMessageP__0__SendBuff >> 8)
   0A6D F5 83              2264 	mov	dph,a
   0A6F 74 7E              2265 	mov	a,#0x7E
   0A71 F0                 2266 	movx	@dptr,a
   0A72 90s05r45           2267 	mov	dptr,#_SchedulerBasicP__TaskBasic__runTask__cil_inline_tmp_1799_1_1
   0A75 E0                 2268 	movx	a,@dptr
   0A76 90s05r77           2269 	mov	dptr,#_SCSuartDBGM__SCSuartDBG__UARTSend_PARM_2
   0A79 F0                 2270 	movx	@dptr,a
   0A7A 90s04r8B           2271 	mov	dptr,#_SerialActiveMessageP__0__SendBuff
   0A7D 75 F0 00           2272 	mov	b,#0x00
   0A80 12s10rCF           2273 	lcall	_SCSuartDBGM__SCSuartDBG__UARTSend
   0A83 A2 92              2274 	mov	c,_P1_2
   0A85 E4                 2275 	clr	a
   0A86 33                 2276 	rlc	a
   0A87 FA                 2277 	mov	r2,a
   0A88 7B 00              2278 	mov	r3,#0x00
   0A8A 4B                 2279 	orl	a,r3
   0A8B 70 03              2280 	jnz	00144$
   0A8D D2 92              2281 	setb	_P1_2
   0A8F 22                 2282 	ret
   0A90                    2283 00144$:
   0A90 C2 92              2284 	clr	_P1_2
   0A92 22                 2285 	ret
   0A93                    2286 00148$:
   0A93 90s02r08           2287 	mov	dptr,#_FloodingM__Next_Addr
   0A96 E0                 2288 	movx	a,@dptr
   0A97 FA                 2289 	mov	r2,a
   0A98 A3                 2290 	inc	dptr
   0A99 E0                 2291 	movx	a,@dptr
   0A9A FB                 2292 	mov	r3,a
   0A9B 90s02r0A           2293 	mov	dptr,#_FloodingM__Forward_Buff_Index
   0A9E E0                 2294 	movx	a,@dptr
   0A9F 75 F0 30           2295 	mov	b,#0x30
   0AA2 A4                 2296 	mul	ab
   0AA3 24r00              2297 	add	a,#_FloodingM__ForwardMsg
   0AA5 FC                 2298 	mov	r4,a
   0AA6 E4                 2299 	clr	a
   0AA7 34s01              2300 	addc	a,#(_FloodingM__ForwardMsg >> 8)
   0AA9 FD                 2301 	mov	r5,a
   0AAA 90s05rFD           2302 	mov	dptr,#_AMQueueEntryP__0__AMSend__send_PARM_2
   0AAD EC                 2303 	mov	a,r4
   0AAE F0                 2304 	movx	@dptr,a
   0AAF A3                 2305 	inc	dptr
   0AB0 ED                 2306 	mov	a,r5
   0AB1 F0                 2307 	movx	@dptr,a
   0AB2 A3                 2308 	inc	dptr
   0AB3 E4                 2309 	clr	a
   0AB4 F0                 2310 	movx	@dptr,a
   0AB5 90s06r00           2311 	mov	dptr,#_AMQueueEntryP__0__AMSend__send_PARM_3
   0AB8 74 18              2312 	mov	a,#0x18
   0ABA F0                 2313 	movx	@dptr,a
   0ABB 8A 82              2314 	mov	dpl,r2
   0ABD 8B 83              2315 	mov	dph,r3
   0ABF 12s1ArBF           2316 	lcall	_AMQueueEntryP__0__AMSend__send
   0AC2 E5 82              2317 	mov	a,dpl
   0AC4 60 01              2318 	jz	00347$
   0AC6 22                 2319 	ret
   0AC7                    2320 00347$:
   0AC7 90s02r0A           2321 	mov	dptr,#_FloodingM__Forward_Buff_Index
   0ACA E0                 2322 	movx	a,@dptr
   0ACB 75 F0 30           2323 	mov	b,#0x30
   0ACE A4                 2324 	mul	ab
   0ACF 24r00              2325 	add	a,#_FloodingM__ForwardMsg
   0AD1 FA                 2326 	mov	r2,a
   0AD2 E4                 2327 	clr	a
   0AD3 34s01              2328 	addc	a,#(_FloodingM__ForwardMsg >> 8)
   0AD5 FB                 2329 	mov	r3,a
   0AD6 7C 00              2330 	mov	r4,#0x00
   0AD8 8A 82              2331 	mov	dpl,r2
   0ADA 8B 83              2332 	mov	dph,r3
   0ADC 8C F0              2333 	mov	b,r4
   0ADE 02s16rA0           2334 	ljmp	_FloodingM__insertMSGtoRTable
   0AE1                    2335 00151$:
   0AE1 12s1Cr0D           2336 	lcall	_RandomC__Random__rand16
   0AE4 AA 82              2337 	mov	r2,dpl
   0AE6 AB 83              2338 	mov	r3,dph
   0AE8 90s00r00           2339 	mov	dptr,#__moduint_PARM_2
   0AEB 74 0C              2340 	mov	a,#0x0C
   0AED F0                 2341 	movx	@dptr,a
   0AEE E4                 2342 	clr	a
   0AEF A3                 2343 	inc	dptr
   0AF0 F0                 2344 	movx	@dptr,a
   0AF1 8A 82              2345 	mov	dpl,r2
   0AF3 8B 83              2346 	mov	dph,r3
   0AF5 12s00r00           2347 	lcall	__moduint
   0AF8 AA 82              2348 	mov	r2,dpl
   0AFA AB 83              2349 	mov	r3,dph
   0AFC EA                 2350 	mov	a,r2
   0AFD 70 06              2351 	jnz	00156$
   0AFF 75 82 0C           2352 	mov	dpl,#0x0C
   0B02 02s14r48           2353 	ljmp	_SchedulerBasicP__TaskBasic__postTask
   0B05                    2354 00156$:
   0B05 BA 0C 00           2355 	cjne	r2,#0x0C,00349$
   0B08                    2356 00349$:
   0B08 40 08              2357 	jc	00153$
   0B0A 90s05r52           2358 	mov	dptr,#_SchedulerBasicP__TaskBasic__runTask__cil_inline_tmp_1835_1_1
   0B0D 74 FE              2359 	mov	a,#0xFE
   0B0F F0                 2360 	movx	@dptr,a
   0B10 80 09              2361 	sjmp	00157$
   0B12                    2362 00153$:
   0B12 90s05r52           2363 	mov	dptr,#_SchedulerBasicP__TaskBasic__runTask__cil_inline_tmp_1835_1_1
   0B15 EA                 2364 	mov	a,r2
   0B16 75 F0 14           2365 	mov	b,#0x14
   0B19 A4                 2366 	mul	ab
   0B1A F0                 2367 	movx	@dptr,a
   0B1B                    2368 00157$:
   0B1B 75 CA 00           2369 	mov	_T3CNT,#0x00
   0B1E 90s05r52           2370 	mov	dptr,#_SchedulerBasicP__TaskBasic__runTask__cil_inline_tmp_1835_1_1
   0B21 E0                 2371 	movx	a,@dptr
   0B22 F5 CD              2372 	mov	_T3CC0,a
   0B24 D2 BB              2373 	setb	_T3IE
   0B26 AA CB              2374 	mov	r2,_T3CTL
   0B28 43 02 10           2375 	orl	ar2,#0x10
   0B2B 8A CB              2376 	mov	_T3CTL,r2
   0B2D 22                 2377 	ret
   0B2E                    2378 00159$:
   0B2E 75 82 00           2379 	mov	dpl,#0x00
   0B31 02s1BrE0           2380 	ljmp	_CC2430ActiveMessageM__CC2430_TX_RX__sendPacketDone
   0B34                    2381 00160$:
   0B34 90s03r82           2382 	mov	dptr,#_HAL_CC2430ControlM__SendDoneError
   0B37 E0                 2383 	movx	a,@dptr
   0B38 F5 82              2384 	mov	dpl,a
   0B3A 02s1BrE0           2385 	ljmp	_CC2430ActiveMessageM__CC2430_TX_RX__sendPacketDone
   0B3D                    2386 00161$:
   0B3D 75 E1 E7           2387 	mov	_RFST,#0xE7
   0B40 90 DF 62           2388 	mov	dptr,#0xDF62
   0B43 E0                 2389 	movx	a,@dptr
   0B44 FA                 2390 	mov	r2,a
   0B45 20 E0 0C           2391 	jb	acc.0,00163$
   0B48 90s03r82           2392 	mov	dptr,#_HAL_CC2430ControlM__SendDoneError
   0B4B 74 20              2393 	mov	a,#0x20
   0B4D F0                 2394 	movx	@dptr,a
   0B4E 75 82 06           2395 	mov	dpl,#0x06
   0B51 02s14r48           2396 	ljmp	_SchedulerBasicP__TaskBasic__postTask
   0B54                    2397 00163$:
   0B54 A2 AF              2398 	mov	c,_EA
   0B56 E4                 2399 	clr	a
   0B57 33                 2400 	rlc	a
   0B58 FA                 2401 	mov	r2,a
   0B59 C2 AF              2402 	clr	_EA
   0B5B 90s02r7D           2403 	mov	dptr,#_HAL_CC2430ControlM__transmitPacketPtr
   0B5E E0                 2404 	movx	a,@dptr
   0B5F FB                 2405 	mov	r3,a
   0B60 A3                 2406 	inc	dptr
   0B61 E0                 2407 	movx	a,@dptr
   0B62 FC                 2408 	mov	r4,a
   0B63 A3                 2409 	inc	dptr
   0B64 E0                 2410 	movx	a,@dptr
   0B65 FD                 2411 	mov	r5,a
   0B66 74 01              2412 	mov	a,#0x01
   0B68 2B                 2413 	add	a,r3
   0B69 FE                 2414 	mov	r6,a
   0B6A E4                 2415 	clr	a
   0B6B 3C                 2416 	addc	a,r4
   0B6C FF                 2417 	mov	r7,a
   0B6D 8D 00              2418 	mov	ar0,r5
   0B6F 8E 82              2419 	mov	dpl,r6
   0B71 8F 83              2420 	mov	dph,r7
   0B73 88 F0              2421 	mov	b,r0
   0B75 12s00r00           2422 	lcall	__gptrget
   0B78 FE                 2423 	mov	r6,a
   0B79 30 E5 08           2424 	jnb	acc.5,00165$
   0B7C 90s03r84           2425 	mov	dptr,#_HAL_CC2430ControlM__WaitACK_Flag
   0B7F 74 01              2426 	mov	a,#0x01
   0B81 F0                 2427 	movx	@dptr,a
   0B82 80 05              2428 	sjmp	00166$
   0B84                    2429 00165$:
   0B84 90s03r84           2430 	mov	dptr,#_HAL_CC2430ControlM__WaitACK_Flag
   0B87 E4                 2431 	clr	a
   0B88 F0                 2432 	movx	@dptr,a
   0B89                    2433 00166$:
   0B89 8B 82              2434 	mov	dpl,r3
   0B8B 8C 83              2435 	mov	dph,r4
   0B8D 8D F0              2436 	mov	b,r5
   0B8F 12s00r00           2437 	lcall	__gptrget
   0B92 FE                 2438 	mov	r6,a
   0B93 8E D9              2439 	mov	_RFD,r6
   0B95 7F 01              2440 	mov	r7,#0x01
   0B97                    2441 00167$:
   0B97 C3                 2442 	clr	c
   0B98 EF                 2443 	mov	a,r7
   0B99 9E                 2444 	subb	a,r6
   0B9A 50 1A              2445 	jnc	00169$
   0B9C C0 02              2446 	push	ar2
   0B9E EF                 2447 	mov	a,r7
   0B9F 2B                 2448 	add	a,r3
   0BA0 F8                 2449 	mov	r0,a
   0BA1 E4                 2450 	clr	a
   0BA2 3C                 2451 	addc	a,r4
   0BA3 F9                 2452 	mov	r1,a
   0BA4 8D 02              2453 	mov	ar2,r5
   0BA6 88 82              2454 	mov	dpl,r0
   0BA8 89 83              2455 	mov	dph,r1
   0BAA 8A F0              2456 	mov	b,r2
   0BAC 12s00r00           2457 	lcall	__gptrget
   0BAF F5 D9              2458 	mov	_RFD,a
   0BB1 0F                 2459 	inc	r7
   0BB2 D0 02              2460 	pop	ar2
   0BB4 80 E1              2461 	sjmp	00167$
   0BB6                    2462 00169$:
   0BB6 90s03r83           2463 	mov	dptr,#_HAL_CC2430ControlM__transmitInProgress
   0BB9 74 01              2464 	mov	a,#0x01
   0BBB F0                 2465 	movx	@dptr,a
   0BBC 75 E1 E3           2466 	mov	_RFST,#0xE3
   0BBF 90s05rCC           2467 	mov	dptr,#_SCS_VTimerP__0__startTimer_PARM_2
   0BC2 74 28              2468 	mov	a,#0x28
   0BC4 F0                 2469 	movx	@dptr,a
   0BC5 E4                 2470 	clr	a
   0BC6 A3                 2471 	inc	dptr
   0BC7 F0                 2472 	movx	@dptr,a
   0BC8 A3                 2473 	inc	dptr
   0BC9 F0                 2474 	movx	@dptr,a
   0BCA A3                 2475 	inc	dptr
   0BCB F0                 2476 	movx	@dptr,a
   0BCC 90s05rD0           2477 	mov	dptr,#_SCS_VTimerP__0__startTimer_PARM_3
   0BCF 74 01              2478 	mov	a,#0x01
   0BD1 F0                 2479 	movx	@dptr,a
   0BD2 75 82 02           2480 	mov	dpl,#0x02
   0BD5 C0 02              2481 	push	ar2
   0BD7 12s17r65           2482 	lcall	_SCS_VTimerP__0__startTimer
   0BDA D0 02              2483 	pop	ar2
   0BDC EA                 2484 	mov	a,r2
   0BDD 24 FF              2485 	add	a,#0xff
   0BDF 92 AF              2486 	mov	_EA,c
   0BE1 22                 2487 	ret
   0BE2                    2488 00171$:
   0BE2 90s00r96           2489 	mov	dptr,#(_SCS_VTimerP__0__mTimerList + 0x001a)
   0BE5 E0                 2490 	movx	a,@dptr
   0BE6 54 FD              2491 	anl	a,#0xfd
   0BE8 F0                 2492 	movx	@dptr,a
   0BE9 22                 2493 	ret
   0BEA                    2494 00172$:
   0BEA 90s05rCC           2495 	mov	dptr,#_SCS_VTimerP__0__startTimer_PARM_2
   0BED 74 10              2496 	mov	a,#0x10
   0BEF F0                 2497 	movx	@dptr,a
   0BF0 E4                 2498 	clr	a
   0BF1 A3                 2499 	inc	dptr
   0BF2 F0                 2500 	movx	@dptr,a
   0BF3 A3                 2501 	inc	dptr
   0BF4 F0                 2502 	movx	@dptr,a
   0BF5 A3                 2503 	inc	dptr
   0BF6 F0                 2504 	movx	@dptr,a
   0BF7 90s05rD0           2505 	mov	dptr,#_SCS_VTimerP__0__startTimer_PARM_3
   0BFA 74 01              2506 	mov	a,#0x01
   0BFC F0                 2507 	movx	@dptr,a
   0BFD 75 82 03           2508 	mov	dpl,#0x03
   0C00 02s17r65           2509 	ljmp	_SCS_VTimerP__0__startTimer
   0C03                    2510 00173$:
   0C03 90s05r53           2511 	mov	dptr,#_SchedulerBasicP__TaskBasic__runTask__cil_inline_tmp_1857_1_1
   0C06 74r00              2512 	mov	a,#_HAL_CC2430ControlM__receivedPacket
   0C08 F0                 2513 	movx	@dptr,a
   0C09 A3                 2514 	inc	dptr
   0C0A 74s03              2515 	mov	a,#(_HAL_CC2430ControlM__receivedPacket >> 8)
   0C0C F0                 2516 	movx	@dptr,a
   0C0D A3                 2517 	inc	dptr
   0C0E E4                 2518 	clr	a
   0C0F F0                 2519 	movx	@dptr,a
   0C10 90s03r00           2520 	mov	dptr,#_HAL_CC2430ControlM__receivedPacket
   0C13 E0                 2521 	movx	a,@dptr
   0C14 24 F4              2522 	add	a,#0xf4
   0C16 FA                 2523 	mov	r2,a
   0C17 90s03r00           2524 	mov	dptr,#_HAL_CC2430ControlM__receivedPacket
   0C1A F0                 2525 	movx	@dptr,a
   0C1B EA                 2526 	mov	a,r2
   0C1C 24r0B              2527 	add	a,#(_HAL_CC2430ControlM__receivedPacket + 0x000b)
   0C1E FB                 2528 	mov	r3,a
   0C1F E4                 2529 	clr	a
   0C20 34s03              2530 	addc	a,#((_HAL_CC2430ControlM__receivedPacket + 0x000b) >> 8)
   0C22 FC                 2531 	mov	r4,a
   0C23 7D 00              2532 	mov	r5,#0x00
   0C25 8B 82              2533 	mov	dpl,r3
   0C27 8C 83              2534 	mov	dph,r4
   0C29 8D F0              2535 	mov	b,r5
   0C2B 12s00r00           2536 	lcall	__gptrget
   0C2E FB                 2537 	mov	r3,a
   0C2F 90s03r2A           2538 	mov	dptr,#(_HAL_CC2430ControlM__receivedPacket + 0x002a)
   0C32 75 F0 00           2539 	mov	b,#0x00
   0C35 EB                 2540 	mov	a,r3
   0C36 12s00r00           2541 	lcall	__gptrput
   0C39 EA                 2542 	mov	a,r2
   0C3A 04                 2543 	inc	a
   0C3B 24r0B              2544 	add	a,#(_HAL_CC2430ControlM__receivedPacket + 0x000b)
   0C3D FA                 2545 	mov	r2,a
   0C3E E4                 2546 	clr	a
   0C3F 34s03              2547 	addc	a,#((_HAL_CC2430ControlM__receivedPacket + 0x000b) >> 8)
   0C41 FB                 2548 	mov	r3,a
   0C42 7C 00              2549 	mov	r4,#0x00
   0C44 8A 82              2550 	mov	dpl,r2
   0C46 8B 83              2551 	mov	dph,r3
   0C48 8C F0              2552 	mov	b,r4
   0C4A 12s00r00           2553 	lcall	__gptrget
   0C4D FA                 2554 	mov	r2,a
   0C4E 74 7F              2555 	mov	a,#0x7F
   0C50 5A                 2556 	anl	a,r2
   0C51 FB                 2557 	mov	r3,a
   0C52 90s03r2B           2558 	mov	dptr,#(_HAL_CC2430ControlM__receivedPacket + 0x002b)
   0C55 75 F0 00           2559 	mov	b,#0x00
   0C58 EB                 2560 	mov	a,r3
   0C59 12s00r00           2561 	lcall	__gptrput
   0C5C 53 02 80           2562 	anl	ar2,#0x80
   0C5F EA                 2563 	mov	a,r2
   0C60 23                 2564 	rl	a
   0C61 54 01              2565 	anl	a,#0x01
   0C63 FA                 2566 	mov	r2,a
   0C64 90s03r2C           2567 	mov	dptr,#(_HAL_CC2430ControlM__receivedPacket + 0x002c)
   0C67 75 F0 00           2568 	mov	b,#0x00
   0C6A EA                 2569 	mov	a,r2
   0C6B 12s00r00           2570 	lcall	__gptrput
   0C6E 90s03r06           2571 	mov	dptr,#(_HAL_CC2430ControlM__receivedPacket + 0x0006)
   0C71 75 F0 00           2572 	mov	b,#0x00
   0C74 12s00r00           2573 	lcall	__gptrget
   0C77 FA                 2574 	mov	r2,a
   0C78 A3                 2575 	inc	dptr
   0C79 12s00r00           2576 	lcall	__gptrget
   0C7C FB                 2577 	mov	r3,a
   0C7D 90s00r00           2578 	mov	dptr,#_TOS_NODE_ID
   0C80 E0                 2579 	movx	a,@dptr
   0C81 FC                 2580 	mov	r4,a
   0C82 A3                 2581 	inc	dptr
   0C83 E0                 2582 	movx	a,@dptr
   0C84 FD                 2583 	mov	r5,a
   0C85 EA                 2584 	mov	a,r2
   0C86 B5 04 0F           2585 	cjne	a,ar4,00178$
   0C89 EB                 2586 	mov	a,r3
   0C8A B5 05 0B           2587 	cjne	a,ar5,00178$
   0C8D 90s05r56           2588 	mov	dptr,#_SchedulerBasicP__TaskBasic__runTask__cil_inline_tmp_1870_1_1
   0C90 74 01              2589 	mov	a,#0x01
   0C92 F0                 2590 	movx	@dptr,a
   0C93 E4                 2591 	clr	a
   0C94 A3                 2592 	inc	dptr
   0C95 F0                 2593 	movx	@dptr,a
   0C96 80 18              2594 	sjmp	00179$
   0C98                    2595 00178$:
   0C98 BA FF 0E           2596 	cjne	r2,#0xFF,00175$
   0C9B BB FF 0B           2597 	cjne	r3,#0xFF,00175$
   0C9E 90s05r56           2598 	mov	dptr,#_SchedulerBasicP__TaskBasic__runTask__cil_inline_tmp_1870_1_1
   0CA1 74 01              2599 	mov	a,#0x01
   0CA3 F0                 2600 	movx	@dptr,a
   0CA4 E4                 2601 	clr	a
   0CA5 A3                 2602 	inc	dptr
   0CA6 F0                 2603 	movx	@dptr,a
   0CA7 80 07              2604 	sjmp	00179$
   0CA9                    2605 00175$:
   0CA9 90s05r56           2606 	mov	dptr,#_SchedulerBasicP__TaskBasic__runTask__cil_inline_tmp_1870_1_1
   0CAC E4                 2607 	clr	a
   0CAD F0                 2608 	movx	@dptr,a
   0CAE A3                 2609 	inc	dptr
   0CAF F0                 2610 	movx	@dptr,a
   0CB0                    2611 00179$:
   0CB0 90s05r56           2612 	mov	dptr,#_SchedulerBasicP__TaskBasic__runTask__cil_inline_tmp_1870_1_1
   0CB3 E0                 2613 	movx	a,@dptr
   0CB4 FA                 2614 	mov	r2,a
   0CB5 A3                 2615 	inc	dptr
   0CB6 E0                 2616 	movx	a,@dptr
   0CB7 FB                 2617 	mov	r3,a
   0CB8 EA                 2618 	mov	a,r2
   0CB9 70 01              2619 	jnz	00358$
   0CBB 22                 2620 	ret
   0CBC                    2621 00358$:
   0CBC 90s03r0A           2622 	mov	dptr,#(_HAL_CC2430ControlM__receivedPacket + 0x000a)
   0CBF 75 F0 00           2623 	mov	b,#0x00
   0CC2 12s00r00           2624 	lcall	__gptrget
   0CC5 FA                 2625 	mov	r2,a
   0CC6 BA 0B 02           2626 	cjne	r2,#0x0B,00359$
   0CC9 80 01              2627 	sjmp	00360$
   0CCB                    2628 00359$:
   0CCB 22                 2629 	ret
   0CCC                    2630 00360$:
   0CCC 90s05r8F           2631 	mov	dptr,#_CC2430ActiveMessageM__Packet__getPayload_PARM_2
   0CCF E4                 2632 	clr	a
   0CD0 F0                 2633 	movx	@dptr,a
   0CD1 A3                 2634 	inc	dptr
   0CD2 F0                 2635 	movx	@dptr,a
   0CD3 A3                 2636 	inc	dptr
   0CD4 F0                 2637 	movx	@dptr,a
   0CD5 90s03r00           2638 	mov	dptr,#_HAL_CC2430ControlM__receivedPacket
   0CD8 75 F0 00           2639 	mov	b,#0x00
   0CDB 12s15r7A           2640 	lcall	_CC2430ActiveMessageM__Packet__getPayload
   0CDE AA 82              2641 	mov	r2,dpl
   0CE0 AB 83              2642 	mov	r3,dph
   0CE2 AC F0              2643 	mov	r4,b
   0CE4 74 02              2644 	mov	a,#0x02
   0CE6 2A                 2645 	add	a,r2
   0CE7 FD                 2646 	mov	r5,a
   0CE8 E4                 2647 	clr	a
   0CE9 3B                 2648 	addc	a,r3
   0CEA FE                 2649 	mov	r6,a
   0CEB 8C 07              2650 	mov	ar7,r4
   0CED 8D 82              2651 	mov	dpl,r5
   0CEF 8E 83              2652 	mov	dph,r6
   0CF1 8F F0              2653 	mov	b,r7
   0CF3 12s00r00           2654 	lcall	__gptrget
   0CF6 FD                 2655 	mov	r5,a
   0CF7 A3                 2656 	inc	dptr
   0CF8 12s00r00           2657 	lcall	__gptrget
   0CFB FE                 2658 	mov	r6,a
   0CFC 90s00r00           2659 	mov	dptr,#_TOS_NODE_ID
   0CFF E0                 2660 	movx	a,@dptr
   0D00 FF                 2661 	mov	r7,a
   0D01 A3                 2662 	inc	dptr
   0D02 E0                 2663 	movx	a,@dptr
   0D03 F8                 2664 	mov	r0,a
   0D04 ED                 2665 	mov	a,r5
   0D05 B5 07 5F           2666 	cjne	a,ar7,00191$
   0D08 EE                 2667 	mov	a,r6
   0D09 B5 00 5B           2668 	cjne	a,ar0,00191$
   0D0C 90s05r53           2669 	mov	dptr,#_SchedulerBasicP__TaskBasic__runTask__cil_inline_tmp_1857_1_1
   0D0F E0                 2670 	movx	a,@dptr
   0D10 FD                 2671 	mov	r5,a
   0D11 A3                 2672 	inc	dptr
   0D12 E0                 2673 	movx	a,@dptr
   0D13 FE                 2674 	mov	r6,a
   0D14 A3                 2675 	inc	dptr
   0D15 E0                 2676 	movx	a,@dptr
   0D16 FF                 2677 	mov	r7,a
   0D17 8D 82              2678 	mov	dpl,r5
   0D19 8E 83              2679 	mov	dph,r6
   0D1B 8F F0              2680 	mov	b,r7
   0D1D 12s15rD8           2681 	lcall	_FloodingM__isRecvPrevious
   0D20 E5 82              2682 	mov	a,dpl
   0D22 60 01              2683 	jz	00363$
   0D24 22                 2684 	ret
   0D25                    2685 00363$:
   0D25 90s05r53           2686 	mov	dptr,#_SchedulerBasicP__TaskBasic__runTask__cil_inline_tmp_1857_1_1
   0D28 E0                 2687 	movx	a,@dptr
   0D29 FD                 2688 	mov	r5,a
   0D2A A3                 2689 	inc	dptr
   0D2B E0                 2690 	movx	a,@dptr
   0D2C FE                 2691 	mov	r6,a
   0D2D A3                 2692 	inc	dptr
   0D2E E0                 2693 	movx	a,@dptr
   0D2F FF                 2694 	mov	r7,a
   0D30 90s00r00           2695 	mov	dptr,#_memcpy_PARM_2
   0D33 ED                 2696 	mov	a,r5
   0D34 F0                 2697 	movx	@dptr,a
   0D35 A3                 2698 	inc	dptr
   0D36 EE                 2699 	mov	a,r6
   0D37 F0                 2700 	movx	@dptr,a
   0D38 A3                 2701 	inc	dptr
   0D39 EF                 2702 	mov	a,r7
   0D3A F0                 2703 	movx	@dptr,a
   0D3B 90s00r00           2704 	mov	dptr,#_memcpy_PARM_3
   0D3E 74 30              2705 	mov	a,#0x30
   0D40 F0                 2706 	movx	@dptr,a
   0D41 E4                 2707 	clr	a
   0D42 A3                 2708 	inc	dptr
   0D43 F0                 2709 	movx	@dptr,a
   0D44 90s00rD0           2710 	mov	dptr,#_FloodingM__RecvMsg
   0D47 75 F0 00           2711 	mov	b,#0x00
   0D4A 12s00r00           2712 	lcall	_memcpy
   0D4D 90s05r53           2713 	mov	dptr,#_SchedulerBasicP__TaskBasic__runTask__cil_inline_tmp_1857_1_1
   0D50 E0                 2714 	movx	a,@dptr
   0D51 FD                 2715 	mov	r5,a
   0D52 A3                 2716 	inc	dptr
   0D53 E0                 2717 	movx	a,@dptr
   0D54 FE                 2718 	mov	r6,a
   0D55 A3                 2719 	inc	dptr
   0D56 E0                 2720 	movx	a,@dptr
   0D57 FF                 2721 	mov	r7,a
   0D58 8D 82              2722 	mov	dpl,r5
   0D5A 8E 83              2723 	mov	dph,r6
   0D5C 8F F0              2724 	mov	b,r7
   0D5E 12s16rA0           2725 	lcall	_FloodingM__insertMSGtoRTable
   0D61 75 82 02           2726 	mov	dpl,#0x02
   0D64 02s14r48           2727 	ljmp	_SchedulerBasicP__TaskBasic__postTask
   0D67                    2728 00191$:
   0D67 90s05r53           2729 	mov	dptr,#_SchedulerBasicP__TaskBasic__runTask__cil_inline_tmp_1857_1_1
   0D6A E0                 2730 	movx	a,@dptr
   0D6B FD                 2731 	mov	r5,a
   0D6C A3                 2732 	inc	dptr
   0D6D E0                 2733 	movx	a,@dptr
   0D6E FE                 2734 	mov	r6,a
   0D6F A3                 2735 	inc	dptr
   0D70 E0                 2736 	movx	a,@dptr
   0D71 FF                 2737 	mov	r7,a
   0D72 8D 82              2738 	mov	dpl,r5
   0D74 8E 83              2739 	mov	dph,r6
   0D76 8F F0              2740 	mov	b,r7
   0D78 C0 02              2741 	push	ar2
   0D7A C0 03              2742 	push	ar3
   0D7C C0 04              2743 	push	ar4
   0D7E 12s15rD8           2744 	lcall	_FloodingM__isRecvPrevious
   0D81 E5 82              2745 	mov	a,dpl
   0D83 D0 04              2746 	pop	ar4
   0D85 D0 03              2747 	pop	ar3
   0D87 D0 02              2748 	pop	ar2
   0D89 60 01              2749 	jz	00364$
   0D8B 22                 2750 	ret
   0D8C                    2751 00364$:
   0D8C 74 07              2752 	mov	a,#0x07
   0D8E 2A                 2753 	add	a,r2
   0D8F FA                 2754 	mov	r2,a
   0D90 E4                 2755 	clr	a
   0D91 3B                 2756 	addc	a,r3
   0D92 FB                 2757 	mov	r3,a
   0D93 8A 82              2758 	mov	dpl,r2
   0D95 8B 83              2759 	mov	dph,r3
   0D97 8C F0              2760 	mov	b,r4
   0D99 12s00r00           2761 	lcall	__gptrget
   0D9C FD                 2762 	mov	r5,a
   0D9D 70 01              2763 	jnz	00365$
   0D9F 22                 2764 	ret
   0DA0                    2765 00365$:
   0DA0 1D                 2766 	dec	r5
   0DA1 8A 82              2767 	mov	dpl,r2
   0DA3 8B 83              2768 	mov	dph,r3
   0DA5 8C F0              2769 	mov	b,r4
   0DA7 ED                 2770 	mov	a,r5
   0DA8 12s00r00           2771 	lcall	__gptrput
   0DAB 90s02r0A           2772 	mov	dptr,#_FloodingM__Forward_Buff_Index
   0DAE E0                 2773 	movx	a,@dptr
   0DAF 90s02r0A           2774 	mov	dptr,#_FloodingM__Forward_Buff_Index
   0DB2 04                 2775 	inc	a
   0DB3 F0                 2776 	movx	@dptr,a
   0DB4 90s02r0A           2777 	mov	dptr,#_FloodingM__Forward_Buff_Index
   0DB7 E0                 2778 	movx	a,@dptr
   0DB8 FA                 2779 	mov	r2,a
   0DB9 90s02r0A           2780 	mov	dptr,#_FloodingM__Forward_Buff_Index
   0DBC 75 F0 05           2781 	mov	b,#0x05
   0DBF EA                 2782 	mov	a,r2
   0DC0 84                 2783 	div	ab
   0DC1 E5 F0              2784 	mov	a,b
   0DC3 F0                 2785 	movx	@dptr,a
   0DC4 90s02r0A           2786 	mov	dptr,#_FloodingM__Forward_Buff_Index
   0DC7 E0                 2787 	movx	a,@dptr
   0DC8 75 F0 30           2788 	mov	b,#0x30
   0DCB A4                 2789 	mul	ab
   0DCC 24r00              2790 	add	a,#_FloodingM__ForwardMsg
   0DCE FA                 2791 	mov	r2,a
   0DCF E4                 2792 	clr	a
   0DD0 34s01              2793 	addc	a,#(_FloodingM__ForwardMsg >> 8)
   0DD2 FB                 2794 	mov	r3,a
   0DD3 7C 00              2795 	mov	r4,#0x00
   0DD5 90s05r53           2796 	mov	dptr,#_SchedulerBasicP__TaskBasic__runTask__cil_inline_tmp_1857_1_1
   0DD8 E0                 2797 	movx	a,@dptr
   0DD9 FD                 2798 	mov	r5,a
   0DDA A3                 2799 	inc	dptr
   0DDB E0                 2800 	movx	a,@dptr
   0DDC FE                 2801 	mov	r6,a
   0DDD A3                 2802 	inc	dptr
   0DDE E0                 2803 	movx	a,@dptr
   0DDF FF                 2804 	mov	r7,a
   0DE0 90s00r00           2805 	mov	dptr,#_memcpy_PARM_2
   0DE3 ED                 2806 	mov	a,r5
   0DE4 F0                 2807 	movx	@dptr,a
   0DE5 A3                 2808 	inc	dptr
   0DE6 EE                 2809 	mov	a,r6
   0DE7 F0                 2810 	movx	@dptr,a
   0DE8 A3                 2811 	inc	dptr
   0DE9 EF                 2812 	mov	a,r7
   0DEA F0                 2813 	movx	@dptr,a
   0DEB 90s00r00           2814 	mov	dptr,#_memcpy_PARM_3
   0DEE 74 30              2815 	mov	a,#0x30
   0DF0 F0                 2816 	movx	@dptr,a
   0DF1 E4                 2817 	clr	a
   0DF2 A3                 2818 	inc	dptr
   0DF3 F0                 2819 	movx	@dptr,a
   0DF4 8A 82              2820 	mov	dpl,r2
   0DF6 8B 83              2821 	mov	dph,r3
   0DF8 8C F0              2822 	mov	b,r4
   0DFA 12s00r00           2823 	lcall	_memcpy
   0DFD 90s02r0A           2824 	mov	dptr,#_FloodingM__Forward_Buff_Index
   0E00 E0                 2825 	movx	a,@dptr
   0E01 75 F0 30           2826 	mov	b,#0x30
   0E04 A4                 2827 	mul	ab
   0E05 24r00              2828 	add	a,#_FloodingM__ForwardMsg
   0E07 FA                 2829 	mov	r2,a
   0E08 E4                 2830 	clr	a
   0E09 34s01              2831 	addc	a,#(_FloodingM__ForwardMsg >> 8)
   0E0B FB                 2832 	mov	r3,a
   0E0C 7C 00              2833 	mov	r4,#0x00
   0E0E 90s05r8F           2834 	mov	dptr,#_CC2430ActiveMessageM__Packet__getPayload_PARM_2
   0E11 E4                 2835 	clr	a
   0E12 F0                 2836 	movx	@dptr,a
   0E13 A3                 2837 	inc	dptr
   0E14 F0                 2838 	movx	@dptr,a
   0E15 A3                 2839 	inc	dptr
   0E16 F0                 2840 	movx	@dptr,a
   0E17 8A 82              2841 	mov	dpl,r2
   0E19 8B 83              2842 	mov	dph,r3
   0E1B 8C F0              2843 	mov	b,r4
   0E1D 12s15r7A           2844 	lcall	_CC2430ActiveMessageM__Packet__getPayload
   0E20 AA 82              2845 	mov	r2,dpl
   0E22 AB 83              2846 	mov	r3,dph
   0E24 AC F0              2847 	mov	r4,b
   0E26 90s00r00           2848 	mov	dptr,#_memcpy_PARM_2
   0E29 EA                 2849 	mov	a,r2
   0E2A F0                 2850 	movx	@dptr,a
   0E2B A3                 2851 	inc	dptr
   0E2C EB                 2852 	mov	a,r3
   0E2D F0                 2853 	movx	@dptr,a
   0E2E A3                 2854 	inc	dptr
   0E2F EC                 2855 	mov	a,r4
   0E30 F0                 2856 	movx	@dptr,a
   0E31 90s00r00           2857 	mov	dptr,#_memcpy_PARM_3
   0E34 74 18              2858 	mov	a,#0x18
   0E36 F0                 2859 	movx	@dptr,a
   0E37 E4                 2860 	clr	a
   0E38 A3                 2861 	inc	dptr
   0E39 F0                 2862 	movx	@dptr,a
   0E3A 90s05r58           2863 	mov	dptr,#_SchedulerBasicP__TaskBasic__runTask__cil_inline_tmp_1893_1_1
   0E3D 75 F0 00           2864 	mov	b,#0x00
   0E40 12s00r00           2865 	lcall	_memcpy
   0E43 90s05r58           2866 	mov	dptr,#_SchedulerBasicP__TaskBasic__runTask__cil_inline_tmp_1893_1_1
   0E46 74 05              2867 	mov	a,#0x05
   0E48 F0                 2868 	movx	@dptr,a
   0E49 A3                 2869 	inc	dptr
   0E4A E4                 2870 	clr	a
   0E4B F0                 2871 	movx	@dptr,a
   0E4C 90s05r60           2872 	mov	dptr,#(_SchedulerBasicP__TaskBasic__runTask__cil_inline_tmp_1893_1_1 + 0x0008)
   0E4F E0                 2873 	movx	a,@dptr
   0E50 FA                 2874 	mov	r2,a
   0E51 A3                 2875 	inc	dptr
   0E52 E0                 2876 	movx	a,@dptr
   0E53 FB                 2877 	mov	r3,a
   0E54 BA FE 15           2878 	cjne	r2,#0xFE,00184$
   0E57 BB FF 12           2879 	cjne	r3,#0xFF,00184$
   0E5A 90s00r00           2880 	mov	dptr,#_TOS_NODE_ID
   0E5D E0                 2881 	movx	a,@dptr
   0E5E FC                 2882 	mov	r4,a
   0E5F A3                 2883 	inc	dptr
   0E60 E0                 2884 	movx	a,@dptr
   0E61 FD                 2885 	mov	r5,a
   0E62 90s05r60           2886 	mov	dptr,#(_SchedulerBasicP__TaskBasic__runTask__cil_inline_tmp_1893_1_1 + 0x0008)
   0E65 EC                 2887 	mov	a,r4
   0E66 F0                 2888 	movx	@dptr,a
   0E67 A3                 2889 	inc	dptr
   0E68 ED                 2890 	mov	a,r5
   0E69 F0                 2891 	movx	@dptr,a
   0E6A 80 18              2892 	sjmp	00185$
   0E6C                    2893 00184$:
   0E6C 90s05r62           2894 	mov	dptr,#(_SchedulerBasicP__TaskBasic__runTask__cil_inline_tmp_1893_1_1 + 0x000a)
   0E6F EA                 2895 	mov	a,r2
   0E70 F0                 2896 	movx	@dptr,a
   0E71 A3                 2897 	inc	dptr
   0E72 EB                 2898 	mov	a,r3
   0E73 F0                 2899 	movx	@dptr,a
   0E74 90s00r00           2900 	mov	dptr,#_TOS_NODE_ID
   0E77 E0                 2901 	movx	a,@dptr
   0E78 FA                 2902 	mov	r2,a
   0E79 A3                 2903 	inc	dptr
   0E7A E0                 2904 	movx	a,@dptr
   0E7B FB                 2905 	mov	r3,a
   0E7C 90s05r60           2906 	mov	dptr,#(_SchedulerBasicP__TaskBasic__runTask__cil_inline_tmp_1893_1_1 + 0x0008)
   0E7F EA                 2907 	mov	a,r2
   0E80 F0                 2908 	movx	@dptr,a
   0E81 A3                 2909 	inc	dptr
   0E82 EB                 2910 	mov	a,r3
   0E83 F0                 2911 	movx	@dptr,a
   0E84                    2912 00185$:
   0E84 90s02r0A           2913 	mov	dptr,#_FloodingM__Forward_Buff_Index
   0E87 E0                 2914 	movx	a,@dptr
   0E88 75 F0 30           2915 	mov	b,#0x30
   0E8B A4                 2916 	mul	ab
   0E8C 24r00              2917 	add	a,#_FloodingM__ForwardMsg
   0E8E FA                 2918 	mov	r2,a
   0E8F E4                 2919 	clr	a
   0E90 34s01              2920 	addc	a,#(_FloodingM__ForwardMsg >> 8)
   0E92 FB                 2921 	mov	r3,a
   0E93 7C 00              2922 	mov	r4,#0x00
   0E95 90s05r8F           2923 	mov	dptr,#_CC2430ActiveMessageM__Packet__getPayload_PARM_2
   0E98 E4                 2924 	clr	a
   0E99 F0                 2925 	movx	@dptr,a
   0E9A A3                 2926 	inc	dptr
   0E9B F0                 2927 	movx	@dptr,a
   0E9C A3                 2928 	inc	dptr
   0E9D F0                 2929 	movx	@dptr,a
   0E9E 8A 82              2930 	mov	dpl,r2
   0EA0 8B 83              2931 	mov	dph,r3
   0EA2 8C F0              2932 	mov	b,r4
   0EA4 12s15r7A           2933 	lcall	_CC2430ActiveMessageM__Packet__getPayload
   0EA7 AA 82              2934 	mov	r2,dpl
   0EA9 AB 83              2935 	mov	r3,dph
   0EAB AC F0              2936 	mov	r4,b
   0EAD 90s00r00           2937 	mov	dptr,#_memcpy_PARM_2
   0EB0 74r58              2938 	mov	a,#_SchedulerBasicP__TaskBasic__runTask__cil_inline_tmp_1893_1_1
   0EB2 F0                 2939 	movx	@dptr,a
   0EB3 A3                 2940 	inc	dptr
   0EB4 74s05              2941 	mov	a,#(_SchedulerBasicP__TaskBasic__runTask__cil_inline_tmp_1893_1_1 >> 8)
   0EB6 F0                 2942 	movx	@dptr,a
   0EB7 A3                 2943 	inc	dptr
   0EB8 E4                 2944 	clr	a
   0EB9 F0                 2945 	movx	@dptr,a
   0EBA 90s00r00           2946 	mov	dptr,#_memcpy_PARM_3
   0EBD 74 18              2947 	mov	a,#0x18
   0EBF F0                 2948 	movx	@dptr,a
   0EC0 E4                 2949 	clr	a
   0EC1 A3                 2950 	inc	dptr
   0EC2 F0                 2951 	movx	@dptr,a
   0EC3 8A 82              2952 	mov	dpl,r2
   0EC5 8B 83              2953 	mov	dph,r3
   0EC7 8C F0              2954 	mov	b,r4
   0EC9 12s00r00           2955 	lcall	_memcpy
   0ECC 75 82 03           2956 	mov	dpl,#0x03
   0ECF 02s14r48           2957 	ljmp	_SchedulerBasicP__TaskBasic__postTask
   0ED2                    2958 00197$:
   0ED2 90s05r70           2959 	mov	dptr,#_SchedulerBasicP__TaskBasic__runTask__cil_inline_tmp_1980_1_1
   0ED5 E5 D9              2960 	mov	a,_RFD
   0ED7 F0                 2961 	movx	@dptr,a
   0ED8 E0                 2962 	movx	a,@dptr
   0ED9 FA                 2963 	mov	r2,a
   0EDA BA 7F 00           2964 	cjne	r2,#0x7F,00368$
   0EDD                    2965 00368$:
   0EDD 50 07              2966 	jnc	00199$
   0EDF 90s03r00           2967 	mov	dptr,#_HAL_CC2430ControlM__receivedPacket
   0EE2 EA                 2968 	mov	a,r2
   0EE3 F0                 2969 	movx	@dptr,a
   0EE4 80 0E              2970 	sjmp	00200$
   0EE6                    2971 00199$:
   0EE6 75 E1 E6           2972 	mov	_RFST,#0xE6
   0EE9 75 E1 E6           2973 	mov	_RFST,#0xE6
   0EEC AB E9              2974 	mov	r3,_RFIF
   0EEE 53 03 DF           2975 	anl	ar3,#0xDF
   0EF1 8B E9              2976 	mov	_RFIF,r3
   0EF3 22                 2977 	ret
   0EF4                    2978 00200$:
   0EF4 90 DF 53           2979 	mov	dptr,#0xDF53
   0EF7 E0                 2980 	movx	a,@dptr
   0EF8 FB                 2981 	mov	r3,a
   0EF9 C3                 2982 	clr	c
   0EFA 9A                 2983 	subb	a,r2
   0EFB E4                 2984 	clr	a
   0EFC 33                 2985 	rlc	a
   0EFD FA                 2986 	mov	r2,a
   0EFE 60 3D              2987 	jz	00302$
   0F00 7C 00              2988 	mov	r4,#0x00
   0F02                    2989 00206$:
   0F02 BC 14 00           2990 	cjne	r4,#0x14,00371$
   0F05                    2991 00371$:
   0F05 50 1E              2992 	jnc	00208$
   0F07 7D 40              2993 	mov	r5,#0x40
   0F09 7E 01              2994 	mov	r6,#0x01
   0F0B                    2995 00201$:
   0F0B ED                 2996 	mov	a,r5
   0F0C 4E                 2997 	orl	a,r6
   0F0D 60 10              2998 	jz	00203$
   0F0F 90s03r85           2999 	mov	dptr,#_BusyWaitMicroC__MicroValue_
   0F12 E4                 3000 	clr	a
   0F13 F0                 3001 	movx	@dptr,a
   0F14 E4                 3002 	clr	a
   0F15 F0                 3003 	movx	@dptr,a
   0F16 E4                 3004 	clr	a
   0F17 F0                 3005 	movx	@dptr,a
   0F18 1D                 3006 	dec	r5
   0F19 BD FF EF           3007 	cjne	r5,#0xff,00201$
   0F1C 1E                 3008 	dec	r6
   0F1D 80 EC              3009 	sjmp	00201$
   0F1F                    3010 00203$:
   0F1F EA                 3011 	mov	a,r2
   0F20 60 03              3012 	jz	00208$
   0F22 0C                 3013 	inc	r4
   0F23 80 DD              3014 	sjmp	00206$
   0F25                    3015 00208$:
   0F25 90s05r70           3016 	mov	dptr,#_SchedulerBasicP__TaskBasic__runTask__cil_inline_tmp_1980_1_1
   0F28 E0                 3017 	movx	a,@dptr
   0F29 FA                 3018 	mov	r2,a
   0F2A C3                 3019 	clr	c
   0F2B EB                 3020 	mov	a,r3
   0F2C 9A                 3021 	subb	a,r2
   0F2D 50 0E              3022 	jnc	00302$
   0F2F 75 E1 E6           3023 	mov	_RFST,#0xE6
   0F32 75 E1 E6           3024 	mov	_RFST,#0xE6
   0F35 AA E9              3025 	mov	r2,_RFIF
   0F37 53 02 DF           3026 	anl	ar2,#0xDF
   0F3A 8A E9              3027 	mov	_RFIF,r2
   0F3C 22                 3028 	ret
   0F3D                    3029 00302$:
   0F3D C3                 3030 	clr	c
   0F3E E4                 3031 	clr	a
   0F3F 9B                 3032 	subb	a,r3
   0F40 E4                 3033 	clr	a
   0F41 33                 3034 	rlc	a
   0F42 FA                 3035 	mov	r2,a
   0F43 BB 81 00           3036 	cjne	r3,#0x81,00376$
   0F46                    3037 00376$:
   0F46 E4                 3038 	clr	a
   0F47 33                 3039 	rlc	a
   0F48 FB                 3040 	mov	r3,a
   0F49 90s05r70           3041 	mov	dptr,#_SchedulerBasicP__TaskBasic__runTask__cil_inline_tmp_1980_1_1
   0F4C E0                 3042 	movx	a,@dptr
   0F4D FC                 3043 	mov	r4,a
   0F4E 7D 00              3044 	mov	r5,#0x00
   0F50                    3045 00219$:
   0F50 C3                 3046 	clr	c
   0F51 ED                 3047 	mov	a,r5
   0F52 9C                 3048 	subb	a,r4
   0F53 50 35              3049 	jnc	00221$
   0F55 EA                 3050 	mov	a,r2
   0F56 60 21              3051 	jz	00217$
   0F58 EB                 3052 	mov	a,r3
   0F59 60 10              3053 	jz	00214$
   0F5B ED                 3054 	mov	a,r5
   0F5C 04                 3055 	inc	a
   0F5D 24r00              3056 	add	a,#_HAL_CC2430ControlM__receivedPacket
   0F5F F5 82              3057 	mov	dpl,a
   0F61 E4                 3058 	clr	a
   0F62 34s03              3059 	addc	a,#(_HAL_CC2430ControlM__receivedPacket >> 8)
   0F64 F5 83              3060 	mov	dph,a
   0F66 E5 D9              3061 	mov	a,_RFD
   0F68 F0                 3062 	movx	@dptr,a
   0F69 80 1C              3063 	sjmp	00218$
   0F6B                    3064 00214$:
   0F6B 75 E1 E6           3065 	mov	_RFST,#0xE6
   0F6E 75 E1 E6           3066 	mov	_RFST,#0xE6
   0F71 AE E9              3067 	mov	r6,_RFIF
   0F73 53 06 DF           3068 	anl	ar6,#0xDF
   0F76 8E E9              3069 	mov	_RFIF,r6
   0F78 22                 3070 	ret
   0F79                    3071 00217$:
   0F79 75 E1 E6           3072 	mov	_RFST,#0xE6
   0F7C 75 E1 E6           3073 	mov	_RFST,#0xE6
   0F7F AE E9              3074 	mov	r6,_RFIF
   0F81 53 06 DF           3075 	anl	ar6,#0xDF
   0F84 8E E9              3076 	mov	_RFIF,r6
   0F86 22                 3077 	ret
   0F87                    3078 00218$:
   0F87 0D                 3079 	inc	r5
   0F88 80 C6              3080 	sjmp	00219$
   0F8A                    3081 00221$:
   0F8A EC                 3082 	mov	a,r4
   0F8B 24r00              3083 	add	a,#_HAL_CC2430ControlM__receivedPacket
   0F8D F5 82              3084 	mov	dpl,a
   0F8F E4                 3085 	clr	a
   0F90 34s03              3086 	addc	a,#(_HAL_CC2430ControlM__receivedPacket >> 8)
   0F92 F5 83              3087 	mov	dph,a
   0F94 E0                 3088 	movx	a,@dptr
   0F95 FA                 3089 	mov	r2,a
   0F96 30 E7 30           3090 	jnb	acc.7,00228$
   0F99 90s03r01           3091 	mov	dptr,#(_HAL_CC2430ControlM__receivedPacket + 0x0001)
   0F9C E0                 3092 	movx	a,@dptr
   0F9D FA                 3093 	mov	r2,a
   0F9E 53 02 03           3094 	anl	ar2,#0x03
   0FA1 BA 02 1F           3095 	cjne	r2,#0x02,00225$
   0FA4 90s03r84           3096 	mov	dptr,#_HAL_CC2430ControlM__WaitACK_Flag
   0FA7 E0                 3097 	movx	a,@dptr
   0FA8 FA                 3098 	mov	r2,a
   0FA9 60 1E              3099 	jz	00228$
   0FAB 90s00r9F           3100 	mov	dptr,#(_SCS_VTimerP__0__mTimerList + 0x0023)
   0FAE E0                 3101 	movx	a,@dptr
   0FAF 54 FD              3102 	anl	a,#0xfd
   0FB1 F0                 3103 	movx	@dptr,a
   0FB2 90s03r84           3104 	mov	dptr,#_HAL_CC2430ControlM__WaitACK_Flag
   0FB5 E4                 3105 	clr	a
   0FB6 F0                 3106 	movx	@dptr,a
   0FB7 90s03r83           3107 	mov	dptr,#_HAL_CC2430ControlM__transmitInProgress
   0FBA F0                 3108 	movx	@dptr,a
   0FBB 75 82 05           3109 	mov	dpl,#0x05
   0FBE 12s14r48           3110 	lcall	_SchedulerBasicP__TaskBasic__postTask
   0FC1 80 06              3111 	sjmp	00228$
   0FC3                    3112 00225$:
   0FC3 75 82 0A           3113 	mov	dpl,#0x0A
   0FC6 12s14r48           3114 	lcall	_SchedulerBasicP__TaskBasic__postTask
   0FC9                    3115 00228$:
   0FC9 75 E1 E6           3116 	mov	_RFST,#0xE6
   0FCC 75 E1 E6           3117 	mov	_RFST,#0xE6
   0FCF AA E9              3118 	mov	r2,_RFIF
   0FD1 53 02 DF           3119 	anl	ar2,#0xDF
   0FD4 8A E9              3120 	mov	_RFIF,r2
   0FD6 22                 3121 	ret
   0FD7                    3122 00230$:
   0FD7 90 DF 62           3123 	mov	dptr,#0xDF62
   0FDA E0                 3124 	movx	a,@dptr
   0FDB FA                 3125 	mov	r2,a
   0FDC 53 02 01           3126 	anl	ar2,#0x01
   0FDF BA 01 54           3127 	cjne	r2,#0x01,00241$
   0FE2 90s02r7A           3128 	mov	dptr,#_CC2430ActiveMessageM__TX_Ready_Msg
   0FE5 E0                 3129 	movx	a,@dptr
   0FE6 FA                 3130 	mov	r2,a
   0FE7 A3                 3131 	inc	dptr
   0FE8 E0                 3132 	movx	a,@dptr
   0FE9 FB                 3133 	mov	r3,a
   0FEA A3                 3134 	inc	dptr
   0FEB E0                 3135 	movx	a,@dptr
   0FEC FC                 3136 	mov	r4,a
   0FED 8A 82              3137 	mov	dpl,r2
   0FEF 8B 83              3138 	mov	dph,r3
   0FF1 8C F0              3139 	mov	b,r4
   0FF3 12s00r00           3140 	lcall	__gptrget
   0FF6 FD                 3141 	mov  r5,a
   0FF7 24 80              3142 	add	a,#0xff - 0x7F
   0FF9 50 01              3143 	jnc	00386$
   0FFB 22                 3144 	ret
   0FFC                    3145 00386$:
   0FFC 90s03r83           3146 	mov	dptr,#_HAL_CC2430ControlM__transmitInProgress
   0FFF E0                 3147 	movx	a,@dptr
   1000 FE                 3148 	mov	r6,a
   1001 BE 01 01           3149 	cjne	r6,#0x01,00387$
   1004 22                 3150 	ret
   1005                    3151 00387$:
   1005 7E 00              3152 	mov	r6,#0x00
   1007 90s00r00           3153 	mov	dptr,#_memcpy_PARM_2
   100A EA                 3154 	mov	a,r2
   100B F0                 3155 	movx	@dptr,a
   100C A3                 3156 	inc	dptr
   100D EB                 3157 	mov	a,r3
   100E F0                 3158 	movx	@dptr,a
   100F A3                 3159 	inc	dptr
   1010 EC                 3160 	mov	a,r4
   1011 F0                 3161 	movx	@dptr,a
   1012 90s00r00           3162 	mov	dptr,#_memcpy_PARM_3
   1015 ED                 3163 	mov	a,r5
   1016 F0                 3164 	movx	@dptr,a
   1017 A3                 3165 	inc	dptr
   1018 EE                 3166 	mov	a,r6
   1019 F0                 3167 	movx	@dptr,a
   101A 90s02r80           3168 	mov	dptr,#_HAL_CC2430ControlM__transmitPacket
   101D 75 F0 00           3169 	mov	b,#0x00
   1020 12s00r00           3170 	lcall	_memcpy
   1023 90s02r7D           3171 	mov	dptr,#_HAL_CC2430ControlM__transmitPacketPtr
   1026 74r80              3172 	mov	a,#_HAL_CC2430ControlM__transmitPacket
   1028 F0                 3173 	movx	@dptr,a
   1029 A3                 3174 	inc	dptr
   102A 74s02              3175 	mov	a,#(_HAL_CC2430ControlM__transmitPacket >> 8)
   102C F0                 3176 	movx	@dptr,a
   102D A3                 3177 	inc	dptr
   102E E4                 3178 	clr	a
   102F F0                 3179 	movx	@dptr,a
   1030 75 82 07           3180 	mov	dpl,#0x07
   1033 02s14r48           3181 	ljmp	_SchedulerBasicP__TaskBasic__postTask
   1036                    3182 00241$:
   1036 90s02r78           3183 	mov	dptr,#_CC2430ActiveMessageM__NumReTX
   1039 E0                 3184 	movx	a,@dptr
   103A FA                 3185 	mov	r2,a
   103B BA 04 00           3186 	cjne	r2,#0x04,00388$
   103E                    3187 00388$:
   103E 50 0C              3188 	jnc	00238$
   1040 90s02r78           3189 	mov	dptr,#_CC2430ActiveMessageM__NumReTX
   1043 EA                 3190 	mov	a,r2
   1044 04                 3191 	inc	a
   1045 F0                 3192 	movx	@dptr,a
   1046 75 82 04           3193 	mov	dpl,#0x04
   1049 02s14r48           3194 	ljmp	_SchedulerBasicP__TaskBasic__postTask
   104C                    3195 00238$:
   104C 90s02r76           3196 	mov	dptr,#_CC2430ActiveMessageM__RF_Status
   104F 74 01              3197 	mov	a,#0x01
   1051 F0                 3198 	movx	@dptr,a
   1052 90s02r78           3199 	mov	dptr,#_CC2430ActiveMessageM__NumReTX
   1055 E4                 3200 	clr	a
   1056 F0                 3201 	movx	@dptr,a
   1057 90s02r7A           3202 	mov	dptr,#_CC2430ActiveMessageM__TX_Ready_Msg
   105A E0                 3203 	movx	a,@dptr
   105B FA                 3204 	mov	r2,a
   105C A3                 3205 	inc	dptr
   105D E0                 3206 	movx	a,@dptr
   105E FB                 3207 	mov	r3,a
   105F A3                 3208 	inc	dptr
   1060 E0                 3209 	movx	a,@dptr
   1061 FC                 3210 	mov	r4,a
   1062 90s05r8A           3211 	mov	dptr,#_AMQueueImplP__0__AMSend__sendDone_PARM_2
   1065 74 01              3212 	mov	a,#0x01
   1067 F0                 3213 	movx	@dptr,a
   1068 8A 82              3214 	mov	dpl,r2
   106A 8B 83              3215 	mov	dph,r3
   106C 8C F0              3216 	mov	b,r4
   106E 02s15r13           3217 	ljmp	_AMQueueImplP__0__AMSend__sendDone
   1071                    3218 00243$:
   1071 90s00r07           3219 	mov	dptr,#_AMQueueImplP__0__current
   1074 E0                 3220 	movx	a,@dptr
   1075 75 F0 03           3221 	mov	b,#0x03
   1078 A4                 3222 	mul	ab
   1079 24r05              3223 	add	a,#_AMQueueImplP__0__queue
   107B F5 82              3224 	mov	dpl,a
   107D E4                 3225 	clr	a
   107E 34s04              3226 	addc	a,#(_AMQueueImplP__0__queue >> 8)
   1080 F5 83              3227 	mov	dph,a
   1082 E4                 3228 	clr	a
   1083 F0                 3229 	movx	@dptr,a
   1084 A3                 3230 	inc	dptr
   1085 F0                 3231 	movx	@dptr,a
   1086 A3                 3232 	inc	dptr
   1087 F0                 3233 	movx	@dptr,a
   1088 02s11r88           3234 	ljmp	_AMQueueImplP__0__tryToSend
   108B                    3235 00244$:
   108B 90s05r0A           3236 	mov	dptr,#_SerialActiveMessageP__0__SendProcessing
   108E E4                 3237 	clr	a
   108F F0                 3238 	movx	@dptr,a
   1090 22                 3239 	ret
   1091                    3240 00245$:
   1091 90s04r8A           3241 	mov	dptr,#_SerialActiveMessageP__0__RecvAckType
   1094 E0                 3242 	movx	a,@dptr
   1095 FA                 3243 	mov	r2,a
   1096 BA 44 35           3244 	cjne	r2,#0x44,00249$
   1099 90s05r71           3245 	mov	dptr,#_SchedulerBasicP__TaskBasic__runTask__cil_inline_tmp_2032_1_1
   109C 74 7E              3246 	mov	a,#0x7E
   109E F0                 3247 	movx	@dptr,a
   109F 90s05r72           3248 	mov	dptr,#(_SchedulerBasicP__TaskBasic__runTask__cil_inline_tmp_2032_1_1 + 0x0001)
   10A2 74 43              3249 	mov	a,#0x43
   10A4 F0                 3250 	movx	@dptr,a
   10A5 90s05r73           3251 	mov	dptr,#(_SchedulerBasicP__TaskBasic__runTask__cil_inline_tmp_2032_1_1 + 0x0002)
   10A8 E4                 3252 	clr	a
   10A9 F0                 3253 	movx	@dptr,a
   10AA 90s05r74           3254 	mov	dptr,#(_SchedulerBasicP__TaskBasic__runTask__cil_inline_tmp_2032_1_1 + 0x0003)
   10AD 74 9F              3255 	mov	a,#0x9F
   10AF F0                 3256 	movx	@dptr,a
   10B0 90s05r75           3257 	mov	dptr,#(_SchedulerBasicP__TaskBasic__runTask__cil_inline_tmp_2032_1_1 + 0x0004)
   10B3 74 58              3258 	mov	a,#0x58
   10B5 F0                 3259 	movx	@dptr,a
   10B6 90s05r76           3260 	mov	dptr,#(_SchedulerBasicP__TaskBasic__runTask__cil_inline_tmp_2032_1_1 + 0x0005)
   10B9 74 7E              3261 	mov	a,#0x7E
   10BB F0                 3262 	movx	@dptr,a
   10BC 90s05r77           3263 	mov	dptr,#_SCSuartDBGM__SCSuartDBG__UARTSend_PARM_2
   10BF 74 06              3264 	mov	a,#0x06
   10C1 F0                 3265 	movx	@dptr,a
   10C2 90s05r71           3266 	mov	dptr,#_SchedulerBasicP__TaskBasic__runTask__cil_inline_tmp_2032_1_1
   10C5 75 F0 00           3267 	mov	b,#0x00
   10C8 02s10rCF           3268 	ljmp	_SCSuartDBGM__SCSuartDBG__UARTSend
   10CB                    3269 00248$:
   10CB 02s04rE5           3270 	ljmp	_SchedulerBasicP__TaskBasic__default__runTask
   10CE                    3271 00249$:
   10CE 22                 3272 	ret
                           3273 ;------------------------------------------------------------
                           3274 ;Allocation info for local variables in function 'SCSuartDBGM__SCSuartDBG__UARTSend'
                           3275 ;------------------------------------------------------------
                           3276 ;len                       Allocated with name '_SCSuartDBGM__SCSuartDBG__UARTSend_PARM_2'
                           3277 ;_data                     Allocated with name '_SCSuartDBGM__SCSuartDBG__UARTSend__data_1_1'
                           3278 ;i                         Allocated with name '_SCSuartDBGM__SCSuartDBG__UARTSend_i_1_1'
                           3279 ;_cil_inline_tmp_2051      Allocated with name '_SCSuartDBGM__SCSuartDBG__UARTSend__cil_inline_tmp_2051_1_1'
                           3280 ;sloc0                     Allocated with name '_SCSuartDBGM__SCSuartDBG__UARTSend_sloc0_1_0'
                           3281 ;sloc1                     Allocated with name '_SCSuartDBGM__SCSuartDBG__UARTSend_sloc1_1_0'
                           3282 ;------------------------------------------------------------
                           3283 ;	-----------------------------------------
                           3284 ;	 function SCSuartDBGM__SCSuartDBG__UARTSend
                           3285 ;	-----------------------------------------
   10CF                    3286 _SCSuartDBGM__SCSuartDBG__UARTSend:
   10CF AA F0              3287 	mov	r2,b
   10D1 AB 83              3288 	mov	r3,dph
   10D3 E5 82              3289 	mov	a,dpl
   10D5 90s05r78           3290 	mov	dptr,#_SCSuartDBGM__SCSuartDBG__UARTSend__data_1_1
   10D8 F0                 3291 	movx	@dptr,a
   10D9 A3                 3292 	inc	dptr
   10DA EB                 3293 	mov	a,r3
   10DB F0                 3294 	movx	@dptr,a
   10DC A3                 3295 	inc	dptr
   10DD EA                 3296 	mov	a,r2
   10DE F0                 3297 	movx	@dptr,a
   10DF 90s00r03           3298 	mov	dptr,#_SCSuartDBGM__buff_start
   10E2 E0                 3299 	movx	a,@dptr
   10E3 FA                 3300 	mov	r2,a
   10E4 A3                 3301 	inc	dptr
   10E5 E0                 3302 	movx	a,@dptr
   10E6 FB                 3303 	mov	r3,a
   10E7 C3                 3304 	clr	c
   10E8 74 7E              3305 	mov	a,#0x7E
   10EA 9A                 3306 	subb	a,r2
   10EB E4                 3307 	clr	a
   10EC 9B                 3308 	subb	a,r3
   10ED 50 07              3309 	jnc	00115$
   10EF 90s00r03           3310 	mov	dptr,#_SCSuartDBGM__buff_start
   10F2 E4                 3311 	clr	a
   10F3 F0                 3312 	movx	@dptr,a
   10F4 A3                 3313 	inc	dptr
   10F5 F0                 3314 	movx	@dptr,a
   10F6                    3315 00115$:
   10F6 90s05r78           3316 	mov	dptr,#_SCSuartDBGM__SCSuartDBG__UARTSend__data_1_1
   10F9 E0                 3317 	movx	a,@dptr
   10FA F5*02              3318 	mov	_SCSuartDBGM__SCSuartDBG__UARTSend_sloc1_1_0,a
   10FC A3                 3319 	inc	dptr
   10FD E0                 3320 	movx	a,@dptr
   10FE F5*03              3321 	mov	(_SCSuartDBGM__SCSuartDBG__UARTSend_sloc1_1_0 + 1),a
   1100 A3                 3322 	inc	dptr
   1101 E0                 3323 	movx	a,@dptr
   1102 F5*04              3324 	mov	(_SCSuartDBGM__SCSuartDBG__UARTSend_sloc1_1_0 + 2),a
   1104 90s05r77           3325 	mov	dptr,#_SCSuartDBGM__SCSuartDBG__UARTSend_PARM_2
   1107 E0                 3326 	movx	a,@dptr
   1108 FD                 3327 	mov	r5,a
   1109 7E 00              3328 	mov	r6,#0x00
   110B                    3329 00105$:
   110B C3                 3330 	clr	c
   110C EE                 3331 	mov	a,r6
   110D 9D                 3332 	subb	a,r5
   110E 50 55              3333 	jnc	00107$
   1110 90s00r05           3334 	mov	dptr,#_SCSuartDBGM__buff_end
   1113 E0                 3335 	movx	a,@dptr
   1114 FF                 3336 	mov	r7,a
   1115 A3                 3337 	inc	dptr
   1116 E0                 3338 	movx	a,@dptr
   1117 F8                 3339 	mov	r0,a
   1118 C3                 3340 	clr	c
   1119 74 7E              3341 	mov	a,#0x7E
   111B 9F                 3342 	subb	a,r7
   111C E4                 3343 	clr	a
   111D 98                 3344 	subb	a,r0
   111E 50 07              3345 	jnc	00104$
   1120 90s00r05           3346 	mov	dptr,#_SCSuartDBGM__buff_end
   1123 E4                 3347 	clr	a
   1124 F0                 3348 	movx	@dptr,a
   1125 A3                 3349 	inc	dptr
   1126 F0                 3350 	movx	@dptr,a
   1127                    3351 00104$:
   1127 C0 05              3352 	push	ar5
   1129 90s00r05           3353 	mov	dptr,#_SCSuartDBGM__buff_end
   112C E0                 3354 	movx	a,@dptr
   112D FF                 3355 	mov	r7,a
   112E A3                 3356 	inc	dptr
   112F E0                 3357 	movx	a,@dptr
   1130 F8                 3358 	mov	r0,a
   1131 EF                 3359 	mov	a,r7
   1132 24r86              3360 	add	a,#_SCSuartDBGM__str_buff
   1134 F5*00              3361 	mov	_SCSuartDBGM__SCSuartDBG__UARTSend_sloc0_1_0,a
   1136 E8                 3362 	mov	a,r0
   1137 34s03              3363 	addc	a,#(_SCSuartDBGM__str_buff >> 8)
   1139 F5*01              3364 	mov	(_SCSuartDBGM__SCSuartDBG__UARTSend_sloc0_1_0 + 1),a
   113B EE                 3365 	mov	a,r6
   113C 25*02              3366 	add	a,_SCSuartDBGM__SCSuartDBG__UARTSend_sloc1_1_0
   113E FD                 3367 	mov	r5,a
   113F E4                 3368 	clr	a
   1140 35*03              3369 	addc	a,(_SCSuartDBGM__SCSuartDBG__UARTSend_sloc1_1_0 + 1)
   1142 F9                 3370 	mov	r1,a
   1143 AA*04              3371 	mov	r2,(_SCSuartDBGM__SCSuartDBG__UARTSend_sloc1_1_0 + 2)
   1145 8D 82              3372 	mov	dpl,r5
   1147 89 83              3373 	mov	dph,r1
   1149 8A F0              3374 	mov	b,r2
   114B 12s00r00           3375 	lcall	__gptrget
   114E 85*00 82           3376 	mov	dpl,_SCSuartDBGM__SCSuartDBG__UARTSend_sloc0_1_0
   1151 85*01 83           3377 	mov	dph,(_SCSuartDBGM__SCSuartDBG__UARTSend_sloc0_1_0 + 1)
   1154 F0                 3378 	movx	@dptr,a
   1155 90s00r05           3379 	mov	dptr,#_SCSuartDBGM__buff_end
   1158 74 01              3380 	mov	a,#0x01
   115A 2F                 3381 	add	a,r7
   115B F0                 3382 	movx	@dptr,a
   115C E4                 3383 	clr	a
   115D 38                 3384 	addc	a,r0
   115E A3                 3385 	inc	dptr
   115F F0                 3386 	movx	@dptr,a
   1160 0E                 3387 	inc	r6
   1161 D0 05              3388 	pop	ar5
   1163 80 A6              3389 	sjmp	00105$
   1165                    3390 00107$:
   1165 90s00r02           3391 	mov	dptr,#_SCSuartDBGM__state
   1168 E0                 3392 	movx	a,@dptr
   1169 FA                 3393 	mov	r2,a
   116A 70 1B              3394 	jnz	00109$
   116C 90s00r02           3395 	mov	dptr,#_SCSuartDBGM__state
   116F 74 01              3396 	mov	a,#0x01
   1171 F0                 3397 	movx	@dptr,a
   1172 90s00r03           3398 	mov	dptr,#_SCSuartDBGM__buff_start
   1175 E0                 3399 	movx	a,@dptr
   1176 FA                 3400 	mov	r2,a
   1177 A3                 3401 	inc	dptr
   1178 E0                 3402 	movx	a,@dptr
   1179 FB                 3403 	mov	r3,a
   117A EA                 3404 	mov	a,r2
   117B 24r86              3405 	add	a,#_SCSuartDBGM__str_buff
   117D F5 82              3406 	mov	dpl,a
   117F EB                 3407 	mov	a,r3
   1180 34s03              3408 	addc	a,#(_SCSuartDBGM__str_buff >> 8)
   1182 F5 83              3409 	mov	dph,a
   1184 E0                 3410 	movx	a,@dptr
   1185 F5 C1              3411 	mov	_U0BUF,a
   1187                    3412 00109$:
   1187 22                 3413 	ret
                           3414 ;------------------------------------------------------------
                           3415 ;Allocation info for local variables in function 'AMQueueImplP__0__tryToSend'
                           3416 ;------------------------------------------------------------
                           3417 ;nextMsg                   Allocated with name '_AMQueueImplP__0__tryToSend_nextMsg_1_1'
                           3418 ;_cil_inline_tmp_2055      Allocated with name '_AMQueueImplP__0__tryToSend__cil_inline_tmp_2055_1_1'
                           3419 ;_cil_inline_tmp_2056      Allocated with name '_AMQueueImplP__0__tryToSend__cil_inline_tmp_2056_1_1'
                           3420 ;_cil_inline_tmp_2061      Allocated with name '_AMQueueImplP__0__tryToSend__cil_inline_tmp_2061_1_1'
                           3421 ;_cil_inline_tmp_2067      Allocated with name '_AMQueueImplP__0__tryToSend__cil_inline_tmp_2067_1_1'
                           3422 ;_cil_inline_tmp_2073      Allocated with name '_AMQueueImplP__0__tryToSend__cil_inline_tmp_2073_1_1'
                           3423 ;_cil_inline_tmp_2080      Allocated with name '_AMQueueImplP__0__tryToSend__cil_inline_tmp_2080_1_1'
                           3424 ;------------------------------------------------------------
                           3425 ;	-----------------------------------------
                           3426 ;	 function AMQueueImplP__0__tryToSend
                           3427 ;	-----------------------------------------
   1188                    3428 _AMQueueImplP__0__tryToSend:
   1188 90s00r07           3429 	mov	dptr,#_AMQueueImplP__0__current
   118B E0                 3430 	movx	a,@dptr
   118C FA                 3431 	mov	r2,a
   118D 90s05r7B           3432 	mov	dptr,#_AMQueueImplP__0__tryToSend__cil_inline_tmp_2056_1_1
   1190 F0                 3433 	movx	@dptr,a
   1191 BA FF 05           3434 	cjne	r2,#0xFF,00102$
   1194 90s05r7B           3435 	mov	dptr,#_AMQueueImplP__0__tryToSend__cil_inline_tmp_2056_1_1
   1197 E4                 3436 	clr	a
   1198 F0                 3437 	movx	@dptr,a
   1199                    3438 00102$:
   1199 90s05r7B           3439 	mov	dptr,#_AMQueueImplP__0__tryToSend__cil_inline_tmp_2056_1_1
   119C E0                 3440 	movx	a,@dptr
   119D FA                 3441 	mov	r2,a
   119E FB                 3442 	mov	r3,a
   119F 7C 00              3443 	mov	r4,#0x00
   11A1                    3444 00105$:
   11A1 8A 05              3445 	mov	ar5,r2
   11A3 7E 00              3446 	mov	r6,#0x00
   11A5 0D                 3447 	inc	r5
   11A6 BD 00 01           3448 	cjne	r5,#0x00,00123$
   11A9 0E                 3449 	inc	r6
   11AA                    3450 00123$:
   11AA C3                 3451 	clr	c
   11AB EB                 3452 	mov	a,r3
   11AC 9D                 3453 	subb	a,r5
   11AD EC                 3454 	mov	a,r4
   11AE 9E                 3455 	subb	a,r6
   11AF 50 2E              3456 	jnc	00107$
   11B1 EB                 3457 	mov	a,r3
   11B2 E4                 3458 	clr	a
   11B3 FD                 3459 	mov	r5,a
   11B4 75 F0 03           3460 	mov	b,#0x03
   11B7 A4                 3461 	mul	ab
   11B8 24r05              3462 	add	a,#_AMQueueImplP__0__queue
   11BA F5 82              3463 	mov	dpl,a
   11BC E4                 3464 	clr	a
   11BD 34s04              3465 	addc	a,#(_AMQueueImplP__0__queue >> 8)
   11BF F5 83              3466 	mov	dph,a
   11C1 E0                 3467 	movx	a,@dptr
   11C2 FE                 3468 	mov	r6,a
   11C3 A3                 3469 	inc	dptr
   11C4 E0                 3470 	movx	a,@dptr
   11C5 FF                 3471 	mov	r7,a
   11C6 A3                 3472 	inc	dptr
   11C7 E0                 3473 	movx	a,@dptr
   11C8 F8                 3474 	mov	r0,a
   11C9 BE 00 05           3475 	cjne	r6,#0x00,00125$
   11CC BF 00 02           3476 	cjne	r7,#0x00,00125$
   11CF 80 07              3477 	sjmp	00104$
   11D1                    3478 00125$:
   11D1 90s00r07           3479 	mov	dptr,#_AMQueueImplP__0__current
   11D4 ED                 3480 	mov	a,r5
   11D5 F0                 3481 	movx	@dptr,a
   11D6 80 0D              3482 	sjmp	00108$
   11D8                    3483 00104$:
   11D8 0B                 3484 	inc	r3
   11D9 BB 00 C5           3485 	cjne	r3,#0x00,00105$
   11DC 0C                 3486 	inc	r4
   11DD 80 C2              3487 	sjmp	00105$
   11DF                    3488 00107$:
   11DF 90s00r07           3489 	mov	dptr,#_AMQueueImplP__0__current
   11E2 74 FF              3490 	mov	a,#0xFF
   11E4 F0                 3491 	movx	@dptr,a
   11E5                    3492 00108$:
   11E5 90s00r07           3493 	mov	dptr,#_AMQueueImplP__0__current
   11E8 E0                 3494 	movx	a,@dptr
   11E9 FA                 3495 	mov	r2,a
   11EA BA FF 01           3496 	cjne	r2,#0xFF,00127$
   11ED 22                 3497 	ret
   11EE                    3498 00127$:
   11EE EA                 3499 	mov	a,r2
   11EF 75 F0 03           3500 	mov	b,#0x03
   11F2 A4                 3501 	mul	ab
   11F3 24r05              3502 	add	a,#_AMQueueImplP__0__queue
   11F5 F5 82              3503 	mov	dpl,a
   11F7 E4                 3504 	clr	a
   11F8 34s04              3505 	addc	a,#(_AMQueueImplP__0__queue >> 8)
   11FA F5 83              3506 	mov	dph,a
   11FC E0                 3507 	movx	a,@dptr
   11FD FA                 3508 	mov	r2,a
   11FE A3                 3509 	inc	dptr
   11FF E0                 3510 	movx	a,@dptr
   1200 FB                 3511 	mov	r3,a
   1201 A3                 3512 	inc	dptr
   1202 E0                 3513 	movx	a,@dptr
   1203 FC                 3514 	mov	r4,a
   1204 74 0A              3515 	mov	a,#0x0A
   1206 2A                 3516 	add	a,r2
   1207 FD                 3517 	mov	r5,a
   1208 E4                 3518 	clr	a
   1209 3B                 3519 	addc	a,r3
   120A FE                 3520 	mov	r6,a
   120B 8C 07              3521 	mov	ar7,r4
   120D 8D 82              3522 	mov	dpl,r5
   120F 8E 83              3523 	mov	dph,r6
   1211 8F F0              3524 	mov	b,r7
   1213 12s00r00           3525 	lcall	__gptrget
   1216 FD                 3526 	mov	r5,a
   1217 74 06              3527 	mov	a,#0x06
   1219 2A                 3528 	add	a,r2
   121A FE                 3529 	mov	r6,a
   121B E4                 3530 	clr	a
   121C 3B                 3531 	addc	a,r3
   121D FF                 3532 	mov	r7,a
   121E 8C 00              3533 	mov	ar0,r4
   1220 8E 82              3534 	mov	dpl,r6
   1222 8F 83              3535 	mov	dph,r7
   1224 88 F0              3536 	mov	b,r0
   1226 12s00r00           3537 	lcall	__gptrget
   1229 FE                 3538 	mov	r6,a
   122A A3                 3539 	inc	dptr
   122B 12s00r00           3540 	lcall	__gptrget
   122E FF                 3541 	mov	r7,a
   122F 8A 82              3542 	mov	dpl,r2
   1231 8B 83              3543 	mov	dph,r3
   1233 8C F0              3544 	mov	b,r4
   1235 12s00r00           3545 	lcall	__gptrget
   1238 F8                 3546 	mov	r0,a
   1239 90s05r7C           3547 	mov	dptr,#_CC2430ActiveMessageM__AMSend__send_PARM_2
   123C EE                 3548 	mov	a,r6
   123D F0                 3549 	movx	@dptr,a
   123E A3                 3550 	inc	dptr
   123F EF                 3551 	mov	a,r7
   1240 F0                 3552 	movx	@dptr,a
   1241 90s05r7E           3553 	mov	dptr,#_CC2430ActiveMessageM__AMSend__send_PARM_3
   1244 EA                 3554 	mov	a,r2
   1245 F0                 3555 	movx	@dptr,a
   1246 A3                 3556 	inc	dptr
   1247 EB                 3557 	mov	a,r3
   1248 F0                 3558 	movx	@dptr,a
   1249 A3                 3559 	inc	dptr
   124A EC                 3560 	mov	a,r4
   124B F0                 3561 	movx	@dptr,a
   124C 90s05r81           3562 	mov	dptr,#_CC2430ActiveMessageM__AMSend__send_PARM_4
   124F E8                 3563 	mov	a,r0
   1250 F0                 3564 	movx	@dptr,a
   1251 8D 82              3565 	mov	dpl,r5
   1253 12s12r61           3566 	lcall	_CC2430ActiveMessageM__AMSend__send
   1256 E5 82              3567 	mov	a,dpl
   1258 60 06              3568 	jz	00112$
   125A 75 82 0D           3569 	mov	dpl,#0x0D
   125D 02s14r48           3570 	ljmp	_SchedulerBasicP__TaskBasic__postTask
   1260                    3571 00112$:
   1260 22                 3572 	ret
                           3573 ;------------------------------------------------------------
                           3574 ;Allocation info for local variables in function 'CC2430ActiveMessageM__AMSend__send'
                           3575 ;------------------------------------------------------------
                           3576 ;sloc0                     Allocated with name '_CC2430ActiveMessageM__AMSend__send_sloc0_1_0'
                           3577 ;sloc1                     Allocated with name '_CC2430ActiveMessageM__AMSend__send_sloc1_1_0'
                           3578 ;addr                      Allocated with name '_CC2430ActiveMessageM__AMSend__send_PARM_2'
                           3579 ;msg                       Allocated with name '_CC2430ActiveMessageM__AMSend__send_PARM_3'
                           3580 ;len                       Allocated with name '_CC2430ActiveMessageM__AMSend__send_PARM_4'
                           3581 ;id                        Allocated with name '_CC2430ActiveMessageM__AMSend__send_id_1_1'
                           3582 ;tmp                       Allocated with name '_CC2430ActiveMessageM__AMSend__send_tmp_1_1'
                           3583 ;------------------------------------------------------------
                           3584 ;	-----------------------------------------
                           3585 ;	 function CC2430ActiveMessageM__AMSend__send
                           3586 ;	-----------------------------------------
   1261                    3587 _CC2430ActiveMessageM__AMSend__send:
   1261 E5 82              3588 	mov	a,dpl
   1263 90s05r82           3589 	mov	dptr,#_CC2430ActiveMessageM__AMSend__send_id_1_1
   1266 F0                 3590 	movx	@dptr,a
   1267 90s05r7C           3591 	mov	dptr,#_CC2430ActiveMessageM__AMSend__send_PARM_2
   126A E0                 3592 	movx	a,@dptr
   126B FA                 3593 	mov	r2,a
   126C A3                 3594 	inc	dptr
   126D E0                 3595 	movx	a,@dptr
   126E FB                 3596 	mov	r3,a
   126F 90s00r00           3597 	mov	dptr,#_TOS_NODE_ID
   1272 E0                 3598 	movx	a,@dptr
   1273 F5*07              3599 	mov	_CC2430ActiveMessageM__AMSend__send_sloc1_1_0,a
   1275 A3                 3600 	inc	dptr
   1276 E0                 3601 	movx	a,@dptr
   1277 F5*08              3602 	mov	(_CC2430ActiveMessageM__AMSend__send_sloc1_1_0 + 1),a
   1279 EA                 3603 	mov	a,r2
   127A B5*07 08           3604 	cjne	a,_CC2430ActiveMessageM__AMSend__send_sloc1_1_0,00102$
   127D EB                 3605 	mov	a,r3
   127E B5*08 04           3606 	cjne	a,(_CC2430ActiveMessageM__AMSend__send_sloc1_1_0 + 1),00102$
   1281 75 82 01           3607 	mov	dpl,#0x01
   1284 22                 3608 	ret
   1285                    3609 00102$:
   1285 90s05r81           3610 	mov	dptr,#_CC2430ActiveMessageM__AMSend__send_PARM_4
   1288 E0                 3611 	movx	a,@dptr
   1289 FE                 3612 	mov  r6,a
   128A 24 E3              3613 	add	a,#0xff - 0x1C
   128C 50 04              3614 	jnc	00104$
   128E 75 82 02           3615 	mov	dpl,#0x02
   1291 22                 3616 	ret
   1292                    3617 00104$:
   1292 90s02r76           3618 	mov	dptr,#_CC2430ActiveMessageM__RF_Status
   1295 E0                 3619 	movx	a,@dptr
   1296 FF                 3620 	mov	r7,a
   1297 BF 01 02           3621 	cjne	r7,#0x01,00123$
   129A 80 04              3622 	sjmp	00106$
   129C                    3623 00123$:
   129C 75 82 05           3624 	mov	dpl,#0x05
   129F 22                 3625 	ret
   12A0                    3626 00106$:
   12A0 90s05r7E           3627 	mov	dptr,#_CC2430ActiveMessageM__AMSend__send_PARM_3
   12A3 E0                 3628 	movx	a,@dptr
   12A4 FF                 3629 	mov	r7,a
   12A5 A3                 3630 	inc	dptr
   12A6 E0                 3631 	movx	a,@dptr
   12A7 F8                 3632 	mov	r0,a
   12A8 A3                 3633 	inc	dptr
   12A9 E0                 3634 	movx	a,@dptr
   12AA F9                 3635 	mov	r1,a
   12AB 74 0C              3636 	mov	a,#0x0C
   12AD 2E                 3637 	add	a,r6
   12AE 8F 82              3638 	mov	dpl,r7
   12B0 88 83              3639 	mov	dph,r0
   12B2 89 F0              3640 	mov	b,r1
   12B4 12s00r00           3641 	lcall	__gptrput
   12B7 74 01              3642 	mov	a,#0x01
   12B9 2F                 3643 	add	a,r7
   12BA F5*04              3644 	mov	_CC2430ActiveMessageM__AMSend__send_sloc0_1_0,a
   12BC E4                 3645 	clr	a
   12BD 38                 3646 	addc	a,r0
   12BE F5*05              3647 	mov	(_CC2430ActiveMessageM__AMSend__send_sloc0_1_0 + 1),a
   12C0 89*06              3648 	mov	(_CC2430ActiveMessageM__AMSend__send_sloc0_1_0 + 2),r1
   12C2 85*04 82           3649 	mov	dpl,_CC2430ActiveMessageM__AMSend__send_sloc0_1_0
   12C5 85*05 83           3650 	mov	dph,(_CC2430ActiveMessageM__AMSend__send_sloc0_1_0 + 1)
   12C8 85*06 F0           3651 	mov	b,(_CC2430ActiveMessageM__AMSend__send_sloc0_1_0 + 2)
   12CB 12s00r00           3652 	lcall	__gptrget
   12CE FE                 3653 	mov	r6,a
   12CF A3                 3654 	inc	dptr
   12D0 12s00r00           3655 	lcall	__gptrget
   12D3 53 06 20           3656 	anl	ar6,#0x20
   12D6 7C 00              3657 	mov	r4,#0x00
   12D8 85*04 82           3658 	mov	dpl,_CC2430ActiveMessageM__AMSend__send_sloc0_1_0
   12DB 85*05 83           3659 	mov	dph,(_CC2430ActiveMessageM__AMSend__send_sloc0_1_0 + 1)
   12DE 85*06 F0           3660 	mov	b,(_CC2430ActiveMessageM__AMSend__send_sloc0_1_0 + 2)
   12E1 EE                 3661 	mov	a,r6
   12E2 12s00r00           3662 	lcall	__gptrput
   12E5 A3                 3663 	inc	dptr
   12E6 EC                 3664 	mov	a,r4
   12E7 12s00r00           3665 	lcall	__gptrput
   12EA 90s02r79           3666 	mov	dptr,#_CC2430ActiveMessageM__AckEnable
   12ED E0                 3667 	movx	a,@dptr
   12EE FC                 3668 	mov	r4,a
   12EF 60 5B              3669 	jz	00111$
   12F1 BA FF 05           3670 	cjne	r2,#0xFF,00125$
   12F4 BB FF 02           3671 	cjne	r3,#0xFF,00125$
   12F7 80 2A              3672 	sjmp	00108$
   12F9                    3673 00125$:
   12F9 85*04 82           3674 	mov	dpl,_CC2430ActiveMessageM__AMSend__send_sloc0_1_0
   12FC 85*05 83           3675 	mov	dph,(_CC2430ActiveMessageM__AMSend__send_sloc0_1_0 + 1)
   12FF 85*06 F0           3676 	mov	b,(_CC2430ActiveMessageM__AMSend__send_sloc0_1_0 + 2)
   1302 12s00r00           3677 	lcall	__gptrget
   1305 FE                 3678 	mov	r6,a
   1306 A3                 3679 	inc	dptr
   1307 12s00r00           3680 	lcall	__gptrget
   130A 53 06 20           3681 	anl	ar6,#0x20
   130D 7C 00              3682 	mov	r4,#0x00
   130F 85*04 82           3683 	mov	dpl,_CC2430ActiveMessageM__AMSend__send_sloc0_1_0
   1312 85*05 83           3684 	mov	dph,(_CC2430ActiveMessageM__AMSend__send_sloc0_1_0 + 1)
   1315 85*06 F0           3685 	mov	b,(_CC2430ActiveMessageM__AMSend__send_sloc0_1_0 + 2)
   1318 EE                 3686 	mov	a,r6
   1319 12s00r00           3687 	lcall	__gptrput
   131C A3                 3688 	inc	dptr
   131D EC                 3689 	mov	a,r4
   131E 12s00r00           3690 	lcall	__gptrput
   1321 80 50              3691 	sjmp	00112$
   1323                    3692 00108$:
   1323 85*04 82           3693 	mov	dpl,_CC2430ActiveMessageM__AMSend__send_sloc0_1_0
   1326 85*05 83           3694 	mov	dph,(_CC2430ActiveMessageM__AMSend__send_sloc0_1_0 + 1)
   1329 85*06 F0           3695 	mov	b,(_CC2430ActiveMessageM__AMSend__send_sloc0_1_0 + 2)
   132C 12s00r00           3696 	lcall	__gptrget
   132F FE                 3697 	mov	r6,a
   1330 A3                 3698 	inc	dptr
   1331 12s00r00           3699 	lcall	__gptrget
   1334 FC                 3700 	mov	r4,a
   1335 53 06 DF           3701 	anl	ar6,#0xDF
   1338 85*04 82           3702 	mov	dpl,_CC2430ActiveMessageM__AMSend__send_sloc0_1_0
   133B 85*05 83           3703 	mov	dph,(_CC2430ActiveMessageM__AMSend__send_sloc0_1_0 + 1)
   133E 85*06 F0           3704 	mov	b,(_CC2430ActiveMessageM__AMSend__send_sloc0_1_0 + 2)
   1341 EE                 3705 	mov	a,r6
   1342 12s00r00           3706 	lcall	__gptrput
   1345 A3                 3707 	inc	dptr
   1346 EC                 3708 	mov	a,r4
   1347 12s00r00           3709 	lcall	__gptrput
   134A 80 27              3710 	sjmp	00112$
   134C                    3711 00111$:
   134C 85*04 82           3712 	mov	dpl,_CC2430ActiveMessageM__AMSend__send_sloc0_1_0
   134F 85*05 83           3713 	mov	dph,(_CC2430ActiveMessageM__AMSend__send_sloc0_1_0 + 1)
   1352 85*06 F0           3714 	mov	b,(_CC2430ActiveMessageM__AMSend__send_sloc0_1_0 + 2)
   1355 12s00r00           3715 	lcall	__gptrget
   1358 FE                 3716 	mov	r6,a
   1359 A3                 3717 	inc	dptr
   135A 12s00r00           3718 	lcall	__gptrget
   135D FC                 3719 	mov	r4,a
   135E 53 06 DF           3720 	anl	ar6,#0xDF
   1361 85*04 82           3721 	mov	dpl,_CC2430ActiveMessageM__AMSend__send_sloc0_1_0
   1364 85*05 83           3722 	mov	dph,(_CC2430ActiveMessageM__AMSend__send_sloc0_1_0 + 1)
   1367 85*06 F0           3723 	mov	b,(_CC2430ActiveMessageM__AMSend__send_sloc0_1_0 + 2)
   136A EE                 3724 	mov	a,r6
   136B 12s00r00           3725 	lcall	__gptrput
   136E A3                 3726 	inc	dptr
   136F EC                 3727 	mov	a,r4
   1370 12s00r00           3728 	lcall	__gptrput
   1373                    3729 00112$:
   1373 85*04 82           3730 	mov	dpl,_CC2430ActiveMessageM__AMSend__send_sloc0_1_0
   1376 85*05 83           3731 	mov	dph,(_CC2430ActiveMessageM__AMSend__send_sloc0_1_0 + 1)
   1379 85*06 F0           3732 	mov	b,(_CC2430ActiveMessageM__AMSend__send_sloc0_1_0 + 2)
   137C 12s00r00           3733 	lcall	__gptrget
   137F FE                 3734 	mov	r6,a
   1380 A3                 3735 	inc	dptr
   1381 12s00r00           3736 	lcall	__gptrget
   1384 FC                 3737 	mov	r4,a
   1385 43 06 41           3738 	orl	ar6,#0x41
   1388 43 04 88           3739 	orl	ar4,#0x88
   138B 85*04 82           3740 	mov	dpl,_CC2430ActiveMessageM__AMSend__send_sloc0_1_0
   138E 85*05 83           3741 	mov	dph,(_CC2430ActiveMessageM__AMSend__send_sloc0_1_0 + 1)
   1391 85*06 F0           3742 	mov	b,(_CC2430ActiveMessageM__AMSend__send_sloc0_1_0 + 2)
   1394 EE                 3743 	mov	a,r6
   1395 12s00r00           3744 	lcall	__gptrput
   1398 A3                 3745 	inc	dptr
   1399 EC                 3746 	mov	a,r4
   139A 12s00r00           3747 	lcall	__gptrput
   139D 90s02r77           3748 	mov	dptr,#_CC2430ActiveMessageM__MAC_Seq
   13A0 E0                 3749 	movx	a,@dptr
   13A1 FC                 3750 	mov	r4,a
   13A2 90s05r83           3751 	mov	dptr,#_CC2430ActiveMessageM__AMSend__send_tmp_1_1
   13A5 F0                 3752 	movx	@dptr,a
   13A6 90s02r77           3753 	mov	dptr,#_CC2430ActiveMessageM__MAC_Seq
   13A9 EC                 3754 	mov	a,r4
   13AA 04                 3755 	inc	a
   13AB F0                 3756 	movx	@dptr,a
   13AC 74 03              3757 	mov	a,#0x03
   13AE 2F                 3758 	add	a,r7
   13AF F5*04              3759 	mov	_CC2430ActiveMessageM__AMSend__send_sloc0_1_0,a
   13B1 E4                 3760 	clr	a
   13B2 38                 3761 	addc	a,r0
   13B3 F5*05              3762 	mov	(_CC2430ActiveMessageM__AMSend__send_sloc0_1_0 + 1),a
   13B5 89*06              3763 	mov	(_CC2430ActiveMessageM__AMSend__send_sloc0_1_0 + 2),r1
   13B7 90s05r83           3764 	mov	dptr,#_CC2430ActiveMessageM__AMSend__send_tmp_1_1
   13BA E0                 3765 	movx	a,@dptr
   13BB 85*04 82           3766 	mov	dpl,_CC2430ActiveMessageM__AMSend__send_sloc0_1_0
   13BE 85*05 83           3767 	mov	dph,(_CC2430ActiveMessageM__AMSend__send_sloc0_1_0 + 1)
   13C1 85*06 F0           3768 	mov	b,(_CC2430ActiveMessageM__AMSend__send_sloc0_1_0 + 2)
   13C4 12s00r00           3769 	lcall	__gptrput
   13C7 74 04              3770 	mov	a,#0x04
   13C9 2F                 3771 	add	a,r7
   13CA FC                 3772 	mov	r4,a
   13CB E4                 3773 	clr	a
   13CC 38                 3774 	addc	a,r0
   13CD FD                 3775 	mov	r5,a
   13CE 89 06              3776 	mov	ar6,r1
   13D0 8C 82              3777 	mov	dpl,r4
   13D2 8D 83              3778 	mov	dph,r5
   13D4 8E F0              3779 	mov	b,r6
   13D6 74 22              3780 	mov	a,#0x22
   13D8 12s00r00           3781 	lcall	__gptrput
   13DB A3                 3782 	inc	dptr
   13DC E4                 3783 	clr	a
   13DD 12s00r00           3784 	lcall	__gptrput
   13E0 74 06              3785 	mov	a,#0x06
   13E2 2F                 3786 	add	a,r7
   13E3 FC                 3787 	mov	r4,a
   13E4 E4                 3788 	clr	a
   13E5 38                 3789 	addc	a,r0
   13E6 FD                 3790 	mov	r5,a
   13E7 89 06              3791 	mov	ar6,r1
   13E9 8C 82              3792 	mov	dpl,r4
   13EB 8D 83              3793 	mov	dph,r5
   13ED 8E F0              3794 	mov	b,r6
   13EF EA                 3795 	mov	a,r2
   13F0 12s00r00           3796 	lcall	__gptrput
   13F3 A3                 3797 	inc	dptr
   13F4 EB                 3798 	mov	a,r3
   13F5 12s00r00           3799 	lcall	__gptrput
   13F8 74 08              3800 	mov	a,#0x08
   13FA 2F                 3801 	add	a,r7
   13FB FA                 3802 	mov	r2,a
   13FC E4                 3803 	clr	a
   13FD 38                 3804 	addc	a,r0
   13FE FB                 3805 	mov	r3,a
   13FF 89 04              3806 	mov	ar4,r1
   1401 8A 82              3807 	mov	dpl,r2
   1403 8B 83              3808 	mov	dph,r3
   1405 8C F0              3809 	mov	b,r4
   1407 E5*07              3810 	mov	a,_CC2430ActiveMessageM__AMSend__send_sloc1_1_0
   1409 12s00r00           3811 	lcall	__gptrput
   140C A3                 3812 	inc	dptr
   140D E5*08              3813 	mov	a,(_CC2430ActiveMessageM__AMSend__send_sloc1_1_0 + 1)
   140F 12s00r00           3814 	lcall	__gptrput
   1412 74 0A              3815 	mov	a,#0x0A
   1414 2F                 3816 	add	a,r7
   1415 FA                 3817 	mov	r2,a
   1416 E4                 3818 	clr	a
   1417 38                 3819 	addc	a,r0
   1418 FB                 3820 	mov	r3,a
   1419 89 04              3821 	mov	ar4,r1
   141B 90s05r82           3822 	mov	dptr,#_CC2430ActiveMessageM__AMSend__send_id_1_1
   141E E0                 3823 	movx	a,@dptr
   141F 8A 82              3824 	mov	dpl,r2
   1421 8B 83              3825 	mov	dph,r3
   1423 8C F0              3826 	mov	b,r4
   1425 12s00r00           3827 	lcall	__gptrput
   1428 90s02r7A           3828 	mov	dptr,#_CC2430ActiveMessageM__TX_Ready_Msg
   142B EF                 3829 	mov	a,r7
   142C F0                 3830 	movx	@dptr,a
   142D A3                 3831 	inc	dptr
   142E E8                 3832 	mov	a,r0
   142F F0                 3833 	movx	@dptr,a
   1430 A3                 3834 	inc	dptr
   1431 E9                 3835 	mov	a,r1
   1432 F0                 3836 	movx	@dptr,a
   1433 90s02r76           3837 	mov	dptr,#_CC2430ActiveMessageM__RF_Status
   1436 74 02              3838 	mov	a,#0x02
   1438 F0                 3839 	movx	@dptr,a
   1439 90s02r78           3840 	mov	dptr,#_CC2430ActiveMessageM__NumReTX
   143C E4                 3841 	clr	a
   143D F0                 3842 	movx	@dptr,a
   143E 75 82 04           3843 	mov	dpl,#0x04
   1441 12s14r48           3844 	lcall	_SchedulerBasicP__TaskBasic__postTask
   1444 75 82 00           3845 	mov	dpl,#0x00
   1447 22                 3846 	ret
                           3847 ;------------------------------------------------------------
                           3848 ;Allocation info for local variables in function 'SchedulerBasicP__TaskBasic__postTask'
                           3849 ;------------------------------------------------------------
                           3850 ;id                        Allocated with name '_SchedulerBasicP__TaskBasic__postTask_id_1_1'
                           3851 ;__nesc_atomic             Allocated with name '_SchedulerBasicP__TaskBasic__postTask___nesc_atomic_1_1'
                           3852 ;tmp___1                   Allocated with name '_SchedulerBasicP__TaskBasic__postTask_tmp___1_1_1'
                           3853 ;_cil_inline_tmp_2086      Allocated with name '_SchedulerBasicP__TaskBasic__postTask__cil_inline_tmp_2086_1_1'
                           3854 ;_cil_inline_tmp_2087      Allocated with name '_SchedulerBasicP__TaskBasic__postTask__cil_inline_tmp_2087_1_1'
                           3855 ;_cil_inline_tmp_2092      Allocated with name '_SchedulerBasicP__TaskBasic__postTask__cil_inline_tmp_2092_1_1'
                           3856 ;_cil_inline_tmp_2094      Allocated with name '_SchedulerBasicP__TaskBasic__postTask__cil_inline_tmp_2094_1_1'
                           3857 ;------------------------------------------------------------
                           3858 ;	-----------------------------------------
                           3859 ;	 function SchedulerBasicP__TaskBasic__postTask
                           3860 ;	-----------------------------------------
   1448                    3861 _SchedulerBasicP__TaskBasic__postTask:
   1448 E5 82              3862 	mov	a,dpl
   144A 90s05r84           3863 	mov	dptr,#_SchedulerBasicP__TaskBasic__postTask_id_1_1
   144D F0                 3864 	movx	@dptr,a
   144E A2 AF              3865 	mov	c,_EA
   1450 E4                 3866 	clr	a
   1451 33                 3867 	rlc	a
   1452 FA                 3868 	mov	r2,a
   1453 C2 AF              3869 	clr	_EA
   1455 90s05r84           3870 	mov	dptr,#_SchedulerBasicP__TaskBasic__postTask_id_1_1
   1458 E0                 3871 	movx	a,@dptr
   1459 FB                 3872 	mov	r3,a
   145A 24r02              3873 	add	a,#_SchedulerBasicP__m_next
   145C F5 82              3874 	mov	dpl,a
   145E E4                 3875 	clr	a
   145F 34s00              3876 	addc	a,#(_SchedulerBasicP__m_next >> 8)
   1461 F5 83              3877 	mov	dph,a
   1463 E0                 3878 	movx	a,@dptr
   1464 FC                 3879 	mov	r4,a
   1465 7D 00              3880 	mov	r5,#0x00
   1467 BC FF 05           3881 	cjne	r4,#0xFF,00123$
   146A BD 00 02           3882 	cjne	r5,#0x00,00123$
   146D 80 0B              3883 	sjmp	00105$
   146F                    3884 00123$:
   146F 90s05r88           3885 	mov	dptr,#_SchedulerBasicP__TaskBasic__postTask__cil_inline_tmp_2092_1_1
   1472 74 01              3886 	mov	a,#0x01
   1474 F0                 3887 	movx	@dptr,a
   1475 E4                 3888 	clr	a
   1476 A3                 3889 	inc	dptr
   1477 F0                 3890 	movx	@dptr,a
   1478 80 22              3891 	sjmp	00106$
   147A                    3892 00105$:
   147A 90s00r01           3893 	mov	dptr,#_SchedulerBasicP__m_tail
   147D E0                 3894 	movx	a,@dptr
   147E FC                 3895 	mov	r4,a
   147F E4                 3896 	clr	a
   1480 FD                 3897 	mov	r5,a
   1481 FE                 3898 	mov	r6,a
   1482 EC                 3899 	mov	a,r4
   1483 B5 03 0F           3900 	cjne	a,ar3,00102$
   1486 ED                 3901 	mov	a,r5
   1487 B5 06 0B           3902 	cjne	a,ar6,00102$
   148A 90s05r88           3903 	mov	dptr,#_SchedulerBasicP__TaskBasic__postTask__cil_inline_tmp_2092_1_1
   148D 74 01              3904 	mov	a,#0x01
   148F F0                 3905 	movx	@dptr,a
   1490 E4                 3906 	clr	a
   1491 A3                 3907 	inc	dptr
   1492 F0                 3908 	movx	@dptr,a
   1493 80 07              3909 	sjmp	00106$
   1495                    3910 00102$:
   1495 90s05r88           3911 	mov	dptr,#_SchedulerBasicP__TaskBasic__postTask__cil_inline_tmp_2092_1_1
   1498 E4                 3912 	clr	a
   1499 F0                 3913 	movx	@dptr,a
   149A A3                 3914 	inc	dptr
   149B F0                 3915 	movx	@dptr,a
   149C                    3916 00106$:
   149C 90s05r88           3917 	mov	dptr,#_SchedulerBasicP__TaskBasic__postTask__cil_inline_tmp_2092_1_1
   149F E0                 3918 	movx	a,@dptr
   14A0 FB                 3919 	mov	r3,a
   14A1 A3                 3920 	inc	dptr
   14A2 E0                 3921 	movx	a,@dptr
   14A3 FC                 3922 	mov	r4,a
   14A4 EB                 3923 	mov	a,r3
   14A5 60 07              3924 	jz	00111$
   14A7 90s05r87           3925 	mov	dptr,#_SchedulerBasicP__TaskBasic__postTask__cil_inline_tmp_2087_1_1
   14AA E4                 3926 	clr	a
   14AB F0                 3927 	movx	@dptr,a
   14AC 80 3D              3928 	sjmp	00112$
   14AE                    3929 00111$:
   14AE 90s00r00           3930 	mov	dptr,#_SchedulerBasicP__m_head
   14B1 E0                 3931 	movx	a,@dptr
   14B2 FB                 3932 	mov	r3,a
   14B3 7C 00              3933 	mov	r4,#0x00
   14B5 BB FF 13           3934 	cjne	r3,#0xFF,00108$
   14B8 BC 00 10           3935 	cjne	r4,#0x00,00108$
   14BB 90s05r84           3936 	mov	dptr,#_SchedulerBasicP__TaskBasic__postTask_id_1_1
   14BE E0                 3937 	movx	a,@dptr
   14BF FB                 3938 	mov	r3,a
   14C0 90s00r00           3939 	mov	dptr,#_SchedulerBasicP__m_head
   14C3 F0                 3940 	movx	@dptr,a
   14C4 90s00r01           3941 	mov	dptr,#_SchedulerBasicP__m_tail
   14C7 EB                 3942 	mov	a,r3
   14C8 F0                 3943 	movx	@dptr,a
   14C9 80 1A              3944 	sjmp	00109$
   14CB                    3945 00108$:
   14CB 90s00r01           3946 	mov	dptr,#_SchedulerBasicP__m_tail
   14CE E0                 3947 	movx	a,@dptr
   14CF 24r02              3948 	add	a,#_SchedulerBasicP__m_next
   14D1 FB                 3949 	mov	r3,a
   14D2 E4                 3950 	clr	a
   14D3 34s00              3951 	addc	a,#(_SchedulerBasicP__m_next >> 8)
   14D5 FC                 3952 	mov	r4,a
   14D6 90s05r84           3953 	mov	dptr,#_SchedulerBasicP__TaskBasic__postTask_id_1_1
   14D9 E0                 3954 	movx	a,@dptr
   14DA FD                 3955 	mov	r5,a
   14DB 8B 82              3956 	mov	dpl,r3
   14DD 8C 83              3957 	mov	dph,r4
   14DF F0                 3958 	movx	@dptr,a
   14E0 90s00r01           3959 	mov	dptr,#_SchedulerBasicP__m_tail
   14E3 ED                 3960 	mov	a,r5
   14E4 F0                 3961 	movx	@dptr,a
   14E5                    3962 00109$:
   14E5 90s05r87           3963 	mov	dptr,#_SchedulerBasicP__TaskBasic__postTask__cil_inline_tmp_2087_1_1
   14E8 74 01              3964 	mov	a,#0x01
   14EA F0                 3965 	movx	@dptr,a
   14EB                    3966 00112$:
   14EB 90s05r87           3967 	mov	dptr,#_SchedulerBasicP__TaskBasic__postTask__cil_inline_tmp_2087_1_1
   14EE E0                 3968 	movx	a,@dptr
   14EF FB                 3969 	mov	r3,a
   14F0 60 09              3970 	jz	00114$
   14F2 90s05r85           3971 	mov	dptr,#_SchedulerBasicP__TaskBasic__postTask_tmp___1_1_1
   14F5 E4                 3972 	clr	a
   14F6 F0                 3973 	movx	@dptr,a
   14F7 A3                 3974 	inc	dptr
   14F8 F0                 3975 	movx	@dptr,a
   14F9 80 09              3976 	sjmp	00115$
   14FB                    3977 00114$:
   14FB 90s05r85           3978 	mov	dptr,#_SchedulerBasicP__TaskBasic__postTask_tmp___1_1_1
   14FE 74 05              3979 	mov	a,#0x05
   1500 F0                 3980 	movx	@dptr,a
   1501 E4                 3981 	clr	a
   1502 A3                 3982 	inc	dptr
   1503 F0                 3983 	movx	@dptr,a
   1504                    3984 00115$:
   1504 EA                 3985 	mov	a,r2
   1505 24 FF              3986 	add	a,#0xff
   1507 92 AF              3987 	mov	_EA,c
   1509 90s05r85           3988 	mov	dptr,#_SchedulerBasicP__TaskBasic__postTask_tmp___1_1_1
   150C E0                 3989 	movx	a,@dptr
   150D FA                 3990 	mov	r2,a
   150E A3                 3991 	inc	dptr
   150F E0                 3992 	movx	a,@dptr
   1510 8A 82              3993 	mov	dpl,r2
   1512 22                 3994 	ret
                           3995 ;------------------------------------------------------------
                           3996 ;Allocation info for local variables in function 'AMQueueImplP__0__AMSend__sendDone'
                           3997 ;------------------------------------------------------------
                           3998 ;err                       Allocated with name '_AMQueueImplP__0__AMSend__sendDone_PARM_2'
                           3999 ;msg                       Allocated with name '_AMQueueImplP__0__AMSend__sendDone_msg_1_1'
                           4000 ;last                      Allocated with name '_AMQueueImplP__0__AMSend__sendDone_last_1_1'
                           4001 ;------------------------------------------------------------
                           4002 ;	-----------------------------------------
                           4003 ;	 function AMQueueImplP__0__AMSend__sendDone
                           4004 ;	-----------------------------------------
   1513                    4005 _AMQueueImplP__0__AMSend__sendDone:
   1513 AA F0              4006 	mov	r2,b
   1515 AB 83              4007 	mov	r3,dph
   1517 E5 82              4008 	mov	a,dpl
   1519 90s05r8B           4009 	mov	dptr,#_AMQueueImplP__0__AMSend__sendDone_msg_1_1
   151C F0                 4010 	movx	@dptr,a
   151D A3                 4011 	inc	dptr
   151E EB                 4012 	mov	a,r3
   151F F0                 4013 	movx	@dptr,a
   1520 A3                 4014 	inc	dptr
   1521 EA                 4015 	mov	a,r2
   1522 F0                 4016 	movx	@dptr,a
   1523 90s00r07           4017 	mov	dptr,#_AMQueueImplP__0__current
   1526 E0                 4018 	movx	a,@dptr
   1527 FA                 4019 	mov	r2,a
   1528 75 F0 03           4020 	mov	b,#0x03
   152B A4                 4021 	mul	ab
   152C 24r05              4022 	add	a,#_AMQueueImplP__0__queue
   152E FB                 4023 	mov	r3,a
   152F E4                 4024 	clr	a
   1530 34s04              4025 	addc	a,#(_AMQueueImplP__0__queue >> 8)
   1532 FC                 4026 	mov	r4,a
   1533 8B 82              4027 	mov	dpl,r3
   1535 8C 83              4028 	mov	dph,r4
   1537 E0                 4029 	movx	a,@dptr
   1538 FD                 4030 	mov	r5,a
   1539 A3                 4031 	inc	dptr
   153A E0                 4032 	movx	a,@dptr
   153B FE                 4033 	mov	r6,a
   153C A3                 4034 	inc	dptr
   153D E0                 4035 	movx	a,@dptr
   153E 90s05r8B           4036 	mov	dptr,#_AMQueueImplP__0__AMSend__sendDone_msg_1_1
   1541 E0                 4037 	movx	a,@dptr
   1542 FF                 4038 	mov	r7,a
   1543 A3                 4039 	inc	dptr
   1544 E0                 4040 	movx	a,@dptr
   1545 F8                 4041 	mov	r0,a
   1546 A3                 4042 	inc	dptr
   1547 E0                 4043 	movx	a,@dptr
   1548 F9                 4044 	mov	r1,a
   1549 ED                 4045 	mov	a,r5
   154A B5 07 2C           4046 	cjne	a,ar7,00106$
   154D EE                 4047 	mov	a,r6
   154E B5 00 28           4048 	cjne	a,ar0,00106$
   1551 90s05r8E           4049 	mov	dptr,#_AMQueueImplP__0__AMSend__sendDone_last_1_1
   1554 EA                 4050 	mov	a,r2
   1555 F0                 4051 	movx	@dptr,a
   1556 8B 82              4052 	mov	dpl,r3
   1558 8C 83              4053 	mov	dph,r4
   155A E4                 4054 	clr	a
   155B F0                 4055 	movx	@dptr,a
   155C A3                 4056 	inc	dptr
   155D F0                 4057 	movx	@dptr,a
   155E A3                 4058 	inc	dptr
   155F F0                 4059 	movx	@dptr,a
   1560 12s11r88           4060 	lcall	_AMQueueImplP__0__tryToSend
   1563 90s05r8E           4061 	mov	dptr,#_AMQueueImplP__0__AMSend__sendDone_last_1_1
   1566 E0                 4062 	movx	a,@dptr
   1567 FA                 4063 	mov	r2,a
   1568 7B 00              4064 	mov	r3,#0x00
   156A BA 00 0C           4065 	cjne	r2,#0x00,00106$
   156D BB 00 09           4066 	cjne	r3,#0x00,00106$
   1570 90s05r8A           4067 	mov	dptr,#_AMQueueImplP__0__AMSend__sendDone_PARM_2
   1573 E0                 4068 	movx	a,@dptr
   1574 FA                 4069 	mov	r2,a
   1575 70 02              4070 	jnz	00106$
   1577 D2 94              4071 	setb	_P1_4
   1579                    4072 00106$:
   1579 22                 4073 	ret
                           4074 ;------------------------------------------------------------
                           4075 ;Allocation info for local variables in function 'CC2430ActiveMessageM__Packet__getPayload'
                           4076 ;------------------------------------------------------------
                           4077 ;len                       Allocated with name '_CC2430ActiveMessageM__Packet__getPayload_PARM_2'
                           4078 ;msg                       Allocated with name '_CC2430ActiveMessageM__Packet__getPayload_msg_1_1'
                           4079 ;_cil_inline_tmp_2111      Allocated with name '_CC2430ActiveMessageM__Packet__getPayload__cil_inline_tmp_2111_1_1'
                           4080 ;------------------------------------------------------------
                           4081 ;	-----------------------------------------
                           4082 ;	 function CC2430ActiveMessageM__Packet__getPayload
                           4083 ;	-----------------------------------------
   157A                    4084 _CC2430ActiveMessageM__Packet__getPayload:
   157A AA F0              4085 	mov	r2,b
   157C AB 83              4086 	mov	r3,dph
   157E E5 82              4087 	mov	a,dpl
   1580 90s05r92           4088 	mov	dptr,#_CC2430ActiveMessageM__Packet__getPayload_msg_1_1
   1583 F0                 4089 	movx	@dptr,a
   1584 A3                 4090 	inc	dptr
   1585 EB                 4091 	mov	a,r3
   1586 F0                 4092 	movx	@dptr,a
   1587 A3                 4093 	inc	dptr
   1588 EA                 4094 	mov	a,r2
   1589 F0                 4095 	movx	@dptr,a
   158A 90s05r8F           4096 	mov	dptr,#_CC2430ActiveMessageM__Packet__getPayload_PARM_2
   158D E0                 4097 	movx	a,@dptr
   158E FA                 4098 	mov	r2,a
   158F A3                 4099 	inc	dptr
   1590 E0                 4100 	movx	a,@dptr
   1591 FB                 4101 	mov	r3,a
   1592 A3                 4102 	inc	dptr
   1593 E0                 4103 	movx	a,@dptr
   1594 FC                 4104 	mov	r4,a
   1595 8A 05              4105 	mov	ar5,r2
   1597 8B 06              4106 	mov	ar6,r3
   1599 BD 00 05           4107 	cjne	r5,#0x00,00106$
   159C BE 00 02           4108 	cjne	r6,#0x00,00106$
   159F 80 1E              4109 	sjmp	00102$
   15A1                    4110 00106$:
   15A1 90s05r92           4111 	mov	dptr,#_CC2430ActiveMessageM__Packet__getPayload_msg_1_1
   15A4 E0                 4112 	movx	a,@dptr
   15A5 FD                 4113 	mov	r5,a
   15A6 A3                 4114 	inc	dptr
   15A7 E0                 4115 	movx	a,@dptr
   15A8 FE                 4116 	mov	r6,a
   15A9 A3                 4117 	inc	dptr
   15AA E0                 4118 	movx	a,@dptr
   15AB FF                 4119 	mov	r7,a
   15AC 8D 82              4120 	mov	dpl,r5
   15AE 8E 83              4121 	mov	dph,r6
   15B0 8F F0              4122 	mov	b,r7
   15B2 12s00r00           4123 	lcall	__gptrget
   15B5 FD                 4124 	mov	r5,a
   15B6 8A 82              4125 	mov	dpl,r2
   15B8 8B 83              4126 	mov	dph,r3
   15BA 8C F0              4127 	mov	b,r4
   15BC 12s00r00           4128 	lcall	__gptrput
   15BF                    4129 00102$:
   15BF 90s05r92           4130 	mov	dptr,#_CC2430ActiveMessageM__Packet__getPayload_msg_1_1
   15C2 E0                 4131 	movx	a,@dptr
   15C3 FA                 4132 	mov	r2,a
   15C4 A3                 4133 	inc	dptr
   15C5 E0                 4134 	movx	a,@dptr
   15C6 FB                 4135 	mov	r3,a
   15C7 A3                 4136 	inc	dptr
   15C8 E0                 4137 	movx	a,@dptr
   15C9 FC                 4138 	mov	r4,a
   15CA 74 0B              4139 	mov	a,#0x0B
   15CC 2A                 4140 	add	a,r2
   15CD FA                 4141 	mov	r2,a
   15CE E4                 4142 	clr	a
   15CF 3B                 4143 	addc	a,r3
   15D0 FB                 4144 	mov	r3,a
   15D1 8A 82              4145 	mov	dpl,r2
   15D3 8B 83              4146 	mov	dph,r3
   15D5 8C F0              4147 	mov	b,r4
   15D7 22                 4148 	ret
                           4149 ;------------------------------------------------------------
                           4150 ;Allocation info for local variables in function 'FloodingM__isRecvPrevious'
                           4151 ;------------------------------------------------------------
                           4152 ;msg                       Allocated with name '_FloodingM__isRecvPrevious_msg_1_1'
                           4153 ;pack                      Allocated with name '_FloodingM__isRecvPrevious_pack_1_1'
                           4154 ;return_status             Allocated with name '_FloodingM__isRecvPrevious_return_status_1_1'
                           4155 ;i                         Allocated with name '_FloodingM__isRecvPrevious_i_1_1'
                           4156 ;_cil_inline_tmp_2133      Allocated with name '_FloodingM__isRecvPrevious__cil_inline_tmp_2133_1_1'
                           4157 ;------------------------------------------------------------
                           4158 ;	-----------------------------------------
                           4159 ;	 function FloodingM__isRecvPrevious
                           4160 ;	-----------------------------------------
   15D8                    4161 _FloodingM__isRecvPrevious:
   15D8 AA F0              4162 	mov	r2,b
   15DA AB 83              4163 	mov	r3,dph
   15DC E5 82              4164 	mov	a,dpl
   15DE 90s05r95           4165 	mov	dptr,#_FloodingM__isRecvPrevious_msg_1_1
   15E1 F0                 4166 	movx	@dptr,a
   15E2 A3                 4167 	inc	dptr
   15E3 EB                 4168 	mov	a,r3
   15E4 F0                 4169 	movx	@dptr,a
   15E5 A3                 4170 	inc	dptr
   15E6 EA                 4171 	mov	a,r2
   15E7 F0                 4172 	movx	@dptr,a
   15E8 90s05rB0           4173 	mov	dptr,#_FloodingM__isRecvPrevious_return_status_1_1
   15EB E4                 4174 	clr	a
   15EC F0                 4175 	movx	@dptr,a
   15ED 90s05r95           4176 	mov	dptr,#_FloodingM__isRecvPrevious_msg_1_1
   15F0 E0                 4177 	movx	a,@dptr
   15F1 FA                 4178 	mov	r2,a
   15F2 A3                 4179 	inc	dptr
   15F3 E0                 4180 	movx	a,@dptr
   15F4 FB                 4181 	mov	r3,a
   15F5 A3                 4182 	inc	dptr
   15F6 E0                 4183 	movx	a,@dptr
   15F7 FC                 4184 	mov	r4,a
   15F8 90s05r8F           4185 	mov	dptr,#_CC2430ActiveMessageM__Packet__getPayload_PARM_2
   15FB E4                 4186 	clr	a
   15FC F0                 4187 	movx	@dptr,a
   15FD A3                 4188 	inc	dptr
   15FE F0                 4189 	movx	@dptr,a
   15FF A3                 4190 	inc	dptr
   1600 F0                 4191 	movx	@dptr,a
   1601 8A 82              4192 	mov	dpl,r2
   1603 8B 83              4193 	mov	dph,r3
   1605 8C F0              4194 	mov	b,r4
   1607 12s15r7A           4195 	lcall	_CC2430ActiveMessageM__Packet__getPayload
   160A AA 82              4196 	mov	r2,dpl
   160C AB 83              4197 	mov	r3,dph
   160E AC F0              4198 	mov	r4,b
   1610 90s00r00           4199 	mov	dptr,#_memcpy_PARM_2
   1613 EA                 4200 	mov	a,r2
   1614 F0                 4201 	movx	@dptr,a
   1615 A3                 4202 	inc	dptr
   1616 EB                 4203 	mov	a,r3
   1617 F0                 4204 	movx	@dptr,a
   1618 A3                 4205 	inc	dptr
   1619 EC                 4206 	mov	a,r4
   161A F0                 4207 	movx	@dptr,a
   161B 90s00r00           4208 	mov	dptr,#_memcpy_PARM_3
   161E 74 18              4209 	mov	a,#0x18
   1620 F0                 4210 	movx	@dptr,a
   1621 E4                 4211 	clr	a
   1622 A3                 4212 	inc	dptr
   1623 F0                 4213 	movx	@dptr,a
   1624 90s05r98           4214 	mov	dptr,#_FloodingM__isRecvPrevious_pack_1_1
   1627 75 F0 00           4215 	mov	b,#0x00
   162A 12s00r00           4216 	lcall	_memcpy
   162D 7A 00              4217 	mov	r2,#0x00
   162F                    4218 00107$:
   162F BA 14 00           4219 	cjne	r2,#0x14,00117$
   1632                    4220 00117$:
   1632 50 65              4221 	jnc	00109$
   1634 EA                 4222 	mov	a,r2
   1635 75 F0 05           4223 	mov	b,#0x05
   1638 A4                 4224 	mul	ab
   1639 FB                 4225 	mov	r3,a
   163A 24r0D              4226 	add	a,#_FloodingM__RTable
   163C F5 82              4227 	mov	dpl,a
   163E E4                 4228 	clr	a
   163F 34s02              4229 	addc	a,#(_FloodingM__RTable >> 8)
   1641 F5 83              4230 	mov	dph,a
   1643 E0                 4231 	movx	a,@dptr
   1644 FC                 4232 	mov	r4,a
   1645 A3                 4233 	inc	dptr
   1646 E0                 4234 	movx	a,@dptr
   1647 FD                 4235 	mov	r5,a
   1648 90s05r9A           4236 	mov	dptr,#(_FloodingM__isRecvPrevious_pack_1_1 + 0x0002)
   164B E0                 4237 	movx	a,@dptr
   164C FE                 4238 	mov	r6,a
   164D A3                 4239 	inc	dptr
   164E E0                 4240 	movx	a,@dptr
   164F FF                 4241 	mov	r7,a
   1650 EC                 4242 	mov	a,r4
   1651 B5 06 42           4243 	cjne	a,ar6,00106$
   1654 ED                 4244 	mov	a,r5
   1655 B5 07 3E           4245 	cjne	a,ar7,00106$
   1658 EB                 4246 	mov	a,r3
   1659 24r0D              4247 	add	a,#_FloodingM__RTable
   165B FB                 4248 	mov	r3,a
   165C E4                 4249 	clr	a
   165D 34s02              4250 	addc	a,#(_FloodingM__RTable >> 8)
   165F FC                 4251 	mov	r4,a
   1660 8B 82              4252 	mov	dpl,r3
   1662 8C 83              4253 	mov	dph,r4
   1664 A3                 4254 	inc	dptr
   1665 A3                 4255 	inc	dptr
   1666 E0                 4256 	movx	a,@dptr
   1667 FD                 4257 	mov	r5,a
   1668 A3                 4258 	inc	dptr
   1669 E0                 4259 	movx	a,@dptr
   166A FE                 4260 	mov	r6,a
   166B 90s05r9C           4261 	mov	dptr,#(_FloodingM__isRecvPrevious_pack_1_1 + 0x0004)
   166E E0                 4262 	movx	a,@dptr
   166F FF                 4263 	mov	r7,a
   1670 A3                 4264 	inc	dptr
   1671 E0                 4265 	movx	a,@dptr
   1672 F8                 4266 	mov	r0,a
   1673 ED                 4267 	mov	a,r5
   1674 B5 07 1F           4268 	cjne	a,ar7,00106$
   1677 EE                 4269 	mov	a,r6
   1678 B5 00 1B           4270 	cjne	a,ar0,00106$
   167B 8B 82              4271 	mov	dpl,r3
   167D 8C 83              4272 	mov	dph,r4
   167F A3                 4273 	inc	dptr
   1680 A3                 4274 	inc	dptr
   1681 A3                 4275 	inc	dptr
   1682 A3                 4276 	inc	dptr
   1683 E0                 4277 	movx	a,@dptr
   1684 FB                 4278 	mov	r3,a
   1685 90s05r9E           4279 	mov	dptr,#(_FloodingM__isRecvPrevious_pack_1_1 + 0x0006)
   1688 E0                 4280 	movx	a,@dptr
   1689 FC                 4281 	mov	r4,a
   168A EB                 4282 	mov	a,r3
   168B B5 04 08           4283 	cjne	a,ar4,00106$
   168E 90s05rB0           4284 	mov	dptr,#_FloodingM__isRecvPrevious_return_status_1_1
   1691 74 01              4285 	mov	a,#0x01
   1693 F0                 4286 	movx	@dptr,a
   1694 80 03              4287 	sjmp	00109$
   1696                    4288 00106$:
   1696 0A                 4289 	inc	r2
   1697 80 96              4290 	sjmp	00107$
   1699                    4291 00109$:
   1699 90s05rB0           4292 	mov	dptr,#_FloodingM__isRecvPrevious_return_status_1_1
   169C E0                 4293 	movx	a,@dptr
   169D F5 82              4294 	mov	dpl,a
   169F 22                 4295 	ret
                           4296 ;------------------------------------------------------------
                           4297 ;Allocation info for local variables in function 'FloodingM__insertMSGtoRTable'
                           4298 ;------------------------------------------------------------
                           4299 ;msg                       Allocated with name '_FloodingM__insertMSGtoRTable_msg_1_1'
                           4300 ;pack                      Allocated with name '_FloodingM__insertMSGtoRTable_pack_1_1'
                           4301 ;_cil_inline_tmp_2154      Allocated with name '_FloodingM__insertMSGtoRTable__cil_inline_tmp_2154_1_1'
                           4302 ;_cil_inline_tmp_2156      Allocated with name '_FloodingM__insertMSGtoRTable__cil_inline_tmp_2156_1_1'
                           4303 ;------------------------------------------------------------
                           4304 ;	-----------------------------------------
                           4305 ;	 function FloodingM__insertMSGtoRTable
                           4306 ;	-----------------------------------------
   16A0                    4307 _FloodingM__insertMSGtoRTable:
   16A0 AA F0              4308 	mov	r2,b
   16A2 AB 83              4309 	mov	r3,dph
   16A4 E5 82              4310 	mov	a,dpl
   16A6 90s05rB1           4311 	mov	dptr,#_FloodingM__insertMSGtoRTable_msg_1_1
   16A9 F0                 4312 	movx	@dptr,a
   16AA A3                 4313 	inc	dptr
   16AB EB                 4314 	mov	a,r3
   16AC F0                 4315 	movx	@dptr,a
   16AD A3                 4316 	inc	dptr
   16AE EA                 4317 	mov	a,r2
   16AF F0                 4318 	movx	@dptr,a
   16B0 90s05rB1           4319 	mov	dptr,#_FloodingM__insertMSGtoRTable_msg_1_1
   16B3 E0                 4320 	movx	a,@dptr
   16B4 FA                 4321 	mov	r2,a
   16B5 A3                 4322 	inc	dptr
   16B6 E0                 4323 	movx	a,@dptr
   16B7 FB                 4324 	mov	r3,a
   16B8 A3                 4325 	inc	dptr
   16B9 E0                 4326 	movx	a,@dptr
   16BA FC                 4327 	mov	r4,a
   16BB 90s05r8F           4328 	mov	dptr,#_CC2430ActiveMessageM__Packet__getPayload_PARM_2
   16BE E4                 4329 	clr	a
   16BF F0                 4330 	movx	@dptr,a
   16C0 A3                 4331 	inc	dptr
   16C1 F0                 4332 	movx	@dptr,a
   16C2 A3                 4333 	inc	dptr
   16C3 F0                 4334 	movx	@dptr,a
   16C4 8A 82              4335 	mov	dpl,r2
   16C6 8B 83              4336 	mov	dph,r3
   16C8 8C F0              4337 	mov	b,r4
   16CA 12s15r7A           4338 	lcall	_CC2430ActiveMessageM__Packet__getPayload
   16CD AA 82              4339 	mov	r2,dpl
   16CF AB 83              4340 	mov	r3,dph
   16D1 AC F0              4341 	mov	r4,b
   16D3 90s00r00           4342 	mov	dptr,#_memcpy_PARM_2
   16D6 EA                 4343 	mov	a,r2
   16D7 F0                 4344 	movx	@dptr,a
   16D8 A3                 4345 	inc	dptr
   16D9 EB                 4346 	mov	a,r3
   16DA F0                 4347 	movx	@dptr,a
   16DB A3                 4348 	inc	dptr
   16DC EC                 4349 	mov	a,r4
   16DD F0                 4350 	movx	@dptr,a
   16DE 90s00r00           4351 	mov	dptr,#_memcpy_PARM_3
   16E1 74 18              4352 	mov	a,#0x18
   16E3 F0                 4353 	movx	@dptr,a
   16E4 E4                 4354 	clr	a
   16E5 A3                 4355 	inc	dptr
   16E6 F0                 4356 	movx	@dptr,a
   16E7 90s05rB4           4357 	mov	dptr,#_FloodingM__insertMSGtoRTable_pack_1_1
   16EA 75 F0 00           4358 	mov	b,#0x00
   16ED 12s00r00           4359 	lcall	_memcpy
   16F0 A2 AF              4360 	mov	c,_EA
   16F2 E4                 4361 	clr	a
   16F3 33                 4362 	rlc	a
   16F4 FA                 4363 	mov	r2,a
   16F5 C2 AF              4364 	clr	_EA
   16F7 90s02r0B           4365 	mov	dptr,#_FloodingM__RTable_Index
   16FA E0                 4366 	movx	a,@dptr
   16FB FB                 4367 	mov	r3,a
   16FC 75 F0 05           4368 	mov	b,#0x05
   16FF A4                 4369 	mul	ab
   1700 FC                 4370 	mov	r4,a
   1701 24r0D              4371 	add	a,#_FloodingM__RTable
   1703 FD                 4372 	mov	r5,a
   1704 E4                 4373 	clr	a
   1705 34s02              4374 	addc	a,#(_FloodingM__RTable >> 8)
   1707 FE                 4375 	mov	r6,a
   1708 90s05rB6           4376 	mov	dptr,#(_FloodingM__insertMSGtoRTable_pack_1_1 + 0x0002)
   170B E0                 4377 	movx	a,@dptr
   170C FF                 4378 	mov	r7,a
   170D A3                 4379 	inc	dptr
   170E E0                 4380 	movx	a,@dptr
   170F F8                 4381 	mov	r0,a
   1710 8D 82              4382 	mov	dpl,r5
   1712 8E 83              4383 	mov	dph,r6
   1714 EF                 4384 	mov	a,r7
   1715 F0                 4385 	movx	@dptr,a
   1716 A3                 4386 	inc	dptr
   1717 E8                 4387 	mov	a,r0
   1718 F0                 4388 	movx	@dptr,a
   1719 EC                 4389 	mov	a,r4
   171A 24r0D              4390 	add	a,#_FloodingM__RTable
   171C FC                 4391 	mov	r4,a
   171D E4                 4392 	clr	a
   171E 34s02              4393 	addc	a,#(_FloodingM__RTable >> 8)
   1720 FD                 4394 	mov	r5,a
   1721 74 02              4395 	mov	a,#0x02
   1723 2C                 4396 	add	a,r4
   1724 FE                 4397 	mov	r6,a
   1725 E4                 4398 	clr	a
   1726 3D                 4399 	addc	a,r5
   1727 FF                 4400 	mov	r7,a
   1728 90s05rB8           4401 	mov	dptr,#(_FloodingM__insertMSGtoRTable_pack_1_1 + 0x0004)
   172B E0                 4402 	movx	a,@dptr
   172C F8                 4403 	mov	r0,a
   172D A3                 4404 	inc	dptr
   172E E0                 4405 	movx	a,@dptr
   172F F9                 4406 	mov	r1,a
   1730 8E 82              4407 	mov	dpl,r6
   1732 8F 83              4408 	mov	dph,r7
   1734 E8                 4409 	mov	a,r0
   1735 F0                 4410 	movx	@dptr,a
   1736 A3                 4411 	inc	dptr
   1737 E9                 4412 	mov	a,r1
   1738 F0                 4413 	movx	@dptr,a
   1739 74 04              4414 	mov	a,#0x04
   173B 2C                 4415 	add	a,r4
   173C FC                 4416 	mov	r4,a
   173D E4                 4417 	clr	a
   173E 3D                 4418 	addc	a,r5
   173F FD                 4419 	mov	r5,a
   1740 90s05rBA           4420 	mov	dptr,#(_FloodingM__insertMSGtoRTable_pack_1_1 + 0x0006)
   1743 E0                 4421 	movx	a,@dptr
   1744 8C 82              4422 	mov	dpl,r4
   1746 8D 83              4423 	mov	dph,r5
   1748 F0                 4424 	movx	@dptr,a
   1749 90s02r0B           4425 	mov	dptr,#_FloodingM__RTable_Index
   174C EB                 4426 	mov	a,r3
   174D 04                 4427 	inc	a
   174E F0                 4428 	movx	@dptr,a
   174F 90s02r0B           4429 	mov	dptr,#_FloodingM__RTable_Index
   1752 E0                 4430 	movx	a,@dptr
   1753 FB                 4431 	mov	r3,a
   1754 90s02r0B           4432 	mov	dptr,#_FloodingM__RTable_Index
   1757 75 F0 14           4433 	mov	b,#0x14
   175A EB                 4434 	mov	a,r3
   175B 84                 4435 	div	ab
   175C E5 F0              4436 	mov	a,b
   175E F0                 4437 	movx	@dptr,a
   175F EA                 4438 	mov	a,r2
   1760 24 FF              4439 	add	a,#0xff
   1762 92 AF              4440 	mov	_EA,c
   1764 22                 4441 	ret
                           4442 ;------------------------------------------------------------
                           4443 ;Allocation info for local variables in function 'SCS_VTimerP__0__startTimer'
                           4444 ;------------------------------------------------------------
                           4445 ;sloc0                     Allocated with name '_SCS_VTimerP__0__startTimer_sloc0_1_0'
                           4446 ;sloc1                     Allocated with name '_SCS_VTimerP__0__startTimer_sloc1_1_0'
                           4447 ;interval                  Allocated with name '_SCS_VTimerP__0__startTimer_PARM_2'
                           4448 ;isoneshot                 Allocated with name '_SCS_VTimerP__0__startTimer_PARM_3'
                           4449 ;id                        Allocated with name '_SCS_VTimerP__0__startTimer_id_1_1'
                           4450 ;_cil_inline_tmp_2161      Allocated with name '_SCS_VTimerP__0__startTimer__cil_inline_tmp_2161_1_1'
                           4451 ;_cil_inline_tmp_2164      Allocated with name '_SCS_VTimerP__0__startTimer__cil_inline_tmp_2164_1_1'
                           4452 ;_cil_inline_tmp_2165      Allocated with name '_SCS_VTimerP__0__startTimer__cil_inline_tmp_2165_1_1'
                           4453 ;_cil_inline_tmp_2166      Allocated with name '_SCS_VTimerP__0__startTimer__cil_inline_tmp_2166_1_1'
                           4454 ;------------------------------------------------------------
                           4455 ;	-----------------------------------------
                           4456 ;	 function SCS_VTimerP__0__startTimer
                           4457 ;	-----------------------------------------
   1765                    4458 _SCS_VTimerP__0__startTimer:
   1765 E5 82              4459 	mov	a,dpl
   1767 90s05rD1           4460 	mov	dptr,#_SCS_VTimerP__0__startTimer_id_1_1
   176A F0                 4461 	movx	@dptr,a
   176B 90s05rD1           4462 	mov	dptr,#_SCS_VTimerP__0__startTimer_id_1_1
   176E E0                 4463 	movx	a,@dptr
   176F FA                 4464 	mov	r2,a
   1770 BA 04 00           4465 	cjne	r2,#0x04,00119$
   1773                    4466 00119$:
   1773 40 04              4467 	jc	00102$
   1775 75 82 00           4468 	mov	dpl,#0x00
   1778 22                 4469 	ret
   1779                    4470 00102$:
   1779 90s05rCC           4471 	mov	dptr,#_SCS_VTimerP__0__startTimer_PARM_2
   177C E0                 4472 	movx	a,@dptr
   177D FB                 4473 	mov	r3,a
   177E A3                 4474 	inc	dptr
   177F E0                 4475 	movx	a,@dptr
   1780 FC                 4476 	mov	r4,a
   1781 A3                 4477 	inc	dptr
   1782 E0                 4478 	movx	a,@dptr
   1783 FD                 4479 	mov	r5,a
   1784 A3                 4480 	inc	dptr
   1785 E0                 4481 	movx	a,@dptr
   1786 FE                 4482 	mov	r6,a
   1787 EB                 4483 	mov	a,r3
   1788 4C                 4484 	orl	a,r4
   1789 4D                 4485 	orl	a,r5
   178A 4E                 4486 	orl	a,r6
   178B 70 2C              4487 	jnz	00108$
   178D 8A 07              4488 	mov	ar7,r2
   178F F8                 4489 	mov	r0,a
   1790 BF 00 05           4490 	cjne	r7,#0x00,00122$
   1793 B8 00 02           4491 	cjne	r0,#0x00,00122$
   1796 80 10              4492 	sjmp	00103$
   1798                    4493 00122$:
   1798 BF 02 05           4494 	cjne	r7,#0x02,00123$
   179B B8 00 02           4495 	cjne	r0,#0x00,00123$
   179E 80 0D              4496 	sjmp	00104$
   17A0                    4497 00123$:
   17A0 BF 03 12           4498 	cjne	r7,#0x03,00106$
   17A3 B8 00 0F           4499 	cjne	r0,#0x00,00106$
   17A6 80 0A              4500 	sjmp	00105$
   17A8                    4501 00103$:
   17A8 12s18rF2           4502 	lcall	_Adhoc_APPM__Timer__fired
   17AB 80 08              4503 	sjmp	00106$
   17AD                    4504 00104$:
   17AD 12s18rDE           4505 	lcall	_HAL_CC2430ControlM__TX_TimeOut__fired
   17B0 80 03              4506 	sjmp	00106$
   17B2                    4507 00105$:
   17B2 12s18rC6           4508 	lcall	_HAL_CC2430ControlM__ACK_TimeOut__fired
   17B5                    4509 00106$:
   17B5 75 82 00           4510 	mov	dpl,#0x00
   17B8 22                 4511 	ret
   17B9                    4512 00108$:
   17B9 EA                 4513 	mov	a,r2
   17BA 75 F0 09           4514 	mov	b,#0x09
   17BD A4                 4515 	mul	ab
   17BE FA                 4516 	mov	r2,a
   17BF 24r7C              4517 	add	a,#_SCS_VTimerP__0__mTimerList
   17C1 F5 82              4518 	mov	dpl,a
   17C3 E4                 4519 	clr	a
   17C4 34s00              4520 	addc	a,#(_SCS_VTimerP__0__mTimerList >> 8)
   17C6 F5 83              4521 	mov	dph,a
   17C8 EB                 4522 	mov	a,r3
   17C9 F0                 4523 	movx	@dptr,a
   17CA A3                 4524 	inc	dptr
   17CB EC                 4525 	mov	a,r4
   17CC F0                 4526 	movx	@dptr,a
   17CD A3                 4527 	inc	dptr
   17CE ED                 4528 	mov	a,r5
   17CF F0                 4529 	movx	@dptr,a
   17D0 A3                 4530 	inc	dptr
   17D1 EE                 4531 	mov	a,r6
   17D2 F0                 4532 	movx	@dptr,a
   17D3 EA                 4533 	mov	a,r2
   17D4 24r7C              4534 	add	a,#_SCS_VTimerP__0__mTimerList
   17D6 F5*0B              4535 	mov	_SCS_VTimerP__0__startTimer_sloc1_1_0,a
   17D8 E4                 4536 	clr	a
   17D9 34s00              4537 	addc	a,#(_SCS_VTimerP__0__mTimerList >> 8)
   17DB F5*0C              4538 	mov	(_SCS_VTimerP__0__startTimer_sloc1_1_0 + 1),a
   17DD 74 08              4539 	mov	a,#0x08
   17DF 25*0B              4540 	add	a,_SCS_VTimerP__0__startTimer_sloc1_1_0
   17E1 F5*09              4541 	mov	_SCS_VTimerP__0__startTimer_sloc0_1_0,a
   17E3 E4                 4542 	clr	a
   17E4 35*0C              4543 	addc	a,(_SCS_VTimerP__0__startTimer_sloc1_1_0 + 1)
   17E6 F5*0A              4544 	mov	(_SCS_VTimerP__0__startTimer_sloc0_1_0 + 1),a
   17E8 90s05rD0           4545 	mov	dptr,#_SCS_VTimerP__0__startTimer_PARM_3
   17EB E0                 4546 	movx	a,@dptr
   17EC 85*09 82           4547 	mov	dpl,_SCS_VTimerP__0__startTimer_sloc0_1_0
   17EF 85*0A 83           4548 	mov	dph,(_SCS_VTimerP__0__startTimer_sloc0_1_0 + 1)
   17F2 13                 4549 	rrc	a
   17F3 E0                 4550 	movx	a,@dptr
   17F4 92 E0              4551 	mov	acc.0,c
   17F6 F0                 4552 	movx	@dptr,a
   17F7 A2 AF              4553 	mov	c,_EA
   17F9 E4                 4554 	clr	a
   17FA 33                 4555 	rlc	a
   17FB F5*09              4556 	mov	_SCS_VTimerP__0__startTimer_sloc0_1_0,a
   17FD C2 AF              4557 	clr	_EA
   17FF 90s05rD2           4558 	mov	dptr,#_SCS_VTimerP__0__startTimer__cil_inline_tmp_2165_1_1
   1802 E5 E2              4559 	mov	a,_T1CNTL
   1804 F0                 4560 	movx	@dptr,a
   1805 90s05rD3           4561 	mov	dptr,#(_SCS_VTimerP__0__startTimer__cil_inline_tmp_2165_1_1 + 0x0001)
   1808 75 F0 00           4562 	mov	b,#0x00
   180B E5 E3              4563 	mov	a,_T1CNTH
   180D 12s00r00           4564 	lcall	__gptrput
   1810 90s05rD2           4565 	mov	dptr,#_SCS_VTimerP__0__startTimer__cil_inline_tmp_2165_1_1
   1813 E0                 4566 	movx	a,@dptr
   1814 F9                 4567 	mov	r1,a
   1815 A3                 4568 	inc	dptr
   1816 E0                 4569 	movx	a,@dptr
   1817 F8                 4570 	mov	r0,a
   1818 90s00r00           4571 	mov	dptr,#__divuint_PARM_2
   181B 74 7D              4572 	mov	a,#0x7D
   181D F0                 4573 	movx	@dptr,a
   181E E4                 4574 	clr	a
   181F A3                 4575 	inc	dptr
   1820 F0                 4576 	movx	@dptr,a
   1821 89 82              4577 	mov	dpl,r1
   1823 88 83              4578 	mov	dph,r0
   1825 C0 03              4579 	push	ar3
   1827 C0 04              4580 	push	ar4
   1829 C0 05              4581 	push	ar5
   182B C0 06              4582 	push	ar6
   182D 12s00r00           4583 	lcall	__divuint
   1830 E5 82              4584 	mov	a,dpl
   1832 85 83 F0           4585 	mov	b,dph
   1835 D0 06              4586 	pop	ar6
   1837 D0 05              4587 	pop	ar5
   1839 D0 04              4588 	pop	ar4
   183B D0 03              4589 	pop	ar3
   183D 90s05rD2           4590 	mov	dptr,#_SCS_VTimerP__0__startTimer__cil_inline_tmp_2165_1_1
   1840 F0                 4591 	movx	@dptr,a
   1841 A3                 4592 	inc	dptr
   1842 E5 F0              4593 	mov	a,b
   1844 F0                 4594 	movx	@dptr,a
   1845 90s05rD2           4595 	mov	dptr,#_SCS_VTimerP__0__startTimer__cil_inline_tmp_2165_1_1
   1848 E0                 4596 	movx	a,@dptr
   1849 F8                 4597 	mov	r0,a
   184A A3                 4598 	inc	dptr
   184B E0                 4599 	movx	a,@dptr
   184C 79 00              4600 	mov	r1,#0x00
   184E 7A 00              4601 	mov	r2,#0x00
   1850 7F 00              4602 	mov	r7,#0x00
   1852 90s05rCC           4603 	mov	dptr,#_SCS_VTimerP__0__startTimer_PARM_2
   1855 E8                 4604 	mov	a,r0
   1856 2B                 4605 	add	a,r3
   1857 F0                 4606 	movx	@dptr,a
   1858 E9                 4607 	mov	a,r1
   1859 3C                 4608 	addc	a,r4
   185A A3                 4609 	inc	dptr
   185B F0                 4610 	movx	@dptr,a
   185C EA                 4611 	mov	a,r2
   185D 3D                 4612 	addc	a,r5
   185E A3                 4613 	inc	dptr
   185F F0                 4614 	movx	@dptr,a
   1860 EF                 4615 	mov	a,r7
   1861 3E                 4616 	addc	a,r6
   1862 A3                 4617 	inc	dptr
   1863 F0                 4618 	movx	@dptr,a
   1864 74 04              4619 	mov	a,#0x04
   1866 25*0B              4620 	add	a,_SCS_VTimerP__0__startTimer_sloc1_1_0
   1868 FA                 4621 	mov	r2,a
   1869 E4                 4622 	clr	a
   186A 35*0C              4623 	addc	a,(_SCS_VTimerP__0__startTimer_sloc1_1_0 + 1)
   186C FB                 4624 	mov	r3,a
   186D 90s05rCC           4625 	mov	dptr,#_SCS_VTimerP__0__startTimer_PARM_2
   1870 E0                 4626 	movx	a,@dptr
   1871 FC                 4627 	mov	r4,a
   1872 A3                 4628 	inc	dptr
   1873 E0                 4629 	movx	a,@dptr
   1874 FD                 4630 	mov	r5,a
   1875 A3                 4631 	inc	dptr
   1876 E0                 4632 	movx	a,@dptr
   1877 FE                 4633 	mov	r6,a
   1878 A3                 4634 	inc	dptr
   1879 E0                 4635 	movx	a,@dptr
   187A FF                 4636 	mov	r7,a
   187B 8A 82              4637 	mov	dpl,r2
   187D 8B 83              4638 	mov	dph,r3
   187F EC                 4639 	mov	a,r4
   1880 F0                 4640 	movx	@dptr,a
   1881 A3                 4641 	inc	dptr
   1882 ED                 4642 	mov	a,r5
   1883 F0                 4643 	movx	@dptr,a
   1884 A3                 4644 	inc	dptr
   1885 EE                 4645 	mov	a,r6
   1886 F0                 4646 	movx	@dptr,a
   1887 A3                 4647 	inc	dptr
   1888 EF                 4648 	mov	a,r7
   1889 F0                 4649 	movx	@dptr,a
   188A 85*0B 82           4650 	mov	dpl,_SCS_VTimerP__0__startTimer_sloc1_1_0
   188D 85*0C 83           4651 	mov	dph,(_SCS_VTimerP__0__startTimer_sloc1_1_0 + 1)
   1890 A3                 4652 	inc	dptr
   1891 A3                 4653 	inc	dptr
   1892 A3                 4654 	inc	dptr
   1893 A3                 4655 	inc	dptr
   1894 A3                 4656 	inc	dptr
   1895 A3                 4657 	inc	dptr
   1896 A3                 4658 	inc	dptr
   1897 A3                 4659 	inc	dptr
   1898 E0                 4660 	movx	a,@dptr
   1899 44 02              4661 	orl	a,#0x02
   189B F0                 4662 	movx	@dptr,a
   189C 90s00r74           4663 	mov	dptr,#_SCS_VTimerP__0__mInterval
   189F E0                 4664 	movx	a,@dptr
   18A0 FA                 4665 	mov	r2,a
   18A1 7B 00              4666 	mov	r3,#0x00
   18A3 78 00              4667 	mov	r0,#0x00
   18A5 79 00              4668 	mov	r1,#0x00
   18A7 C3                 4669 	clr	c
   18A8 EC                 4670 	mov	a,r4
   18A9 9A                 4671 	subb	a,r2
   18AA ED                 4672 	mov	a,r5
   18AB 9B                 4673 	subb	a,r3
   18AC EE                 4674 	mov	a,r6
   18AD 98                 4675 	subb	a,r0
   18AE EF                 4676 	mov	a,r7
   18AF 99                 4677 	subb	a,r1
   18B0 50 0A              4678 	jnc	00110$
   18B2 90s00r74           4679 	mov	dptr,#_SCS_VTimerP__0__mInterval
   18B5 EC                 4680 	mov	a,r4
   18B6 F0                 4681 	movx	@dptr,a
   18B7 8C 82              4682 	mov	dpl,r4
   18B9 12s1BrB8           4683 	lcall	_HplSCS_Clock_Timer1P__Alarm__start
   18BC                    4684 00110$:
   18BC E5*09              4685 	mov	a,_SCS_VTimerP__0__startTimer_sloc0_1_0
   18BE 24 FF              4686 	add	a,#0xff
   18C0 92 AF              4687 	mov	_EA,c
   18C2 75 82 00           4688 	mov	dpl,#0x00
   18C5 22                 4689 	ret
                           4690 ;------------------------------------------------------------
                           4691 ;Allocation info for local variables in function 'HAL_CC2430ControlM__ACK_TimeOut__fired'
                           4692 ;------------------------------------------------------------
                           4693 ;------------------------------------------------------------
                           4694 ;	-----------------------------------------
                           4695 ;	 function HAL_CC2430ControlM__ACK_TimeOut__fired
                           4696 ;	-----------------------------------------
   18C6                    4697 _HAL_CC2430ControlM__ACK_TimeOut__fired:
   18C6 90s03r83           4698 	mov	dptr,#_HAL_CC2430ControlM__transmitInProgress
   18C9 E4                 4699 	clr	a
   18CA F0                 4700 	movx	@dptr,a
   18CB 90s03r84           4701 	mov	dptr,#_HAL_CC2430ControlM__WaitACK_Flag
   18CE F0                 4702 	movx	@dptr,a
   18CF 75 E1 E7           4703 	mov	_RFST,#0xE7
   18D2 90s03r82           4704 	mov	dptr,#_HAL_CC2430ControlM__SendDoneError
   18D5 74 22              4705 	mov	a,#0x22
   18D7 F0                 4706 	movx	@dptr,a
   18D8 75 82 06           4707 	mov	dpl,#0x06
   18DB 02s14r48           4708 	ljmp	_SchedulerBasicP__TaskBasic__postTask
                           4709 ;------------------------------------------------------------
                           4710 ;Allocation info for local variables in function 'HAL_CC2430ControlM__TX_TimeOut__fired'
                           4711 ;------------------------------------------------------------
                           4712 ;------------------------------------------------------------
                           4713 ;	-----------------------------------------
                           4714 ;	 function HAL_CC2430ControlM__TX_TimeOut__fired
                           4715 ;	-----------------------------------------
   18DE                    4716 _HAL_CC2430ControlM__TX_TimeOut__fired:
   18DE 90s03r83           4717 	mov	dptr,#_HAL_CC2430ControlM__transmitInProgress
   18E1 E4                 4718 	clr	a
   18E2 F0                 4719 	movx	@dptr,a
   18E3 75 E1 E7           4720 	mov	_RFST,#0xE7
   18E6 90s03r82           4721 	mov	dptr,#_HAL_CC2430ControlM__SendDoneError
   18E9 74 21              4722 	mov	a,#0x21
   18EB F0                 4723 	movx	@dptr,a
   18EC 75 82 06           4724 	mov	dpl,#0x06
   18EF 02s14r48           4725 	ljmp	_SchedulerBasicP__TaskBasic__postTask
                           4726 ;------------------------------------------------------------
                           4727 ;Allocation info for local variables in function 'Adhoc_APPM__Timer__fired'
                           4728 ;------------------------------------------------------------
                           4729 ;APP_M                     Allocated with name '_Adhoc_APPM__Timer__fired_APP_M_1_1'
                           4730 ;tmp                       Allocated with name '_Adhoc_APPM__Timer__fired_tmp_1_1'
                           4731 ;_cil_inline_tmp_2174      Allocated with name '_Adhoc_APPM__Timer__fired__cil_inline_tmp_2174_1_1'
                           4732 ;_cil_inline_tmp_2184      Allocated with name '_Adhoc_APPM__Timer__fired__cil_inline_tmp_2184_1_1'
                           4733 ;_cil_inline_tmp_2209      Allocated with name '_Adhoc_APPM__Timer__fired__cil_inline_tmp_2209_1_1'
                           4734 ;_cil_inline_tmp_2229      Allocated with name '_Adhoc_APPM__Timer__fired__cil_inline_tmp_2229_1_1'
                           4735 ;_cil_inline_tmp_2231      Allocated with name '_Adhoc_APPM__Timer__fired__cil_inline_tmp_2231_1_1'
                           4736 ;_cil_inline_tmp_2234      Allocated with name '_Adhoc_APPM__Timer__fired__cil_inline_tmp_2234_1_1'
                           4737 ;------------------------------------------------------------
                           4738 ;	-----------------------------------------
                           4739 ;	 function Adhoc_APPM__Timer__fired
                           4740 ;	-----------------------------------------
   18F2                    4741 _Adhoc_APPM__Timer__fired:
   18F2 90s00r72           4742 	mov	dptr,#_Adhoc_APPM__APP_Seq
   18F5 E0                 4743 	movx	a,@dptr
   18F6 FA                 4744 	mov	r2,a
   18F7 A3                 4745 	inc	dptr
   18F8 E0                 4746 	movx	a,@dptr
   18F9 FB                 4747 	mov	r3,a
   18FA 90s05rE0           4748 	mov	dptr,#_Adhoc_APPM__Timer__fired_tmp_1_1
   18FD EA                 4749 	mov	a,r2
   18FE F0                 4750 	movx	@dptr,a
   18FF A3                 4751 	inc	dptr
   1900 EB                 4752 	mov	a,r3
   1901 F0                 4753 	movx	@dptr,a
   1902 90s00r72           4754 	mov	dptr,#_Adhoc_APPM__APP_Seq
   1905 74 01              4755 	mov	a,#0x01
   1907 2A                 4756 	add	a,r2
   1908 F0                 4757 	movx	@dptr,a
   1909 E4                 4758 	clr	a
   190A 3B                 4759 	addc	a,r3
   190B A3                 4760 	inc	dptr
   190C F0                 4761 	movx	@dptr,a
   190D 90s05rE0           4762 	mov	dptr,#_Adhoc_APPM__Timer__fired_tmp_1_1
   1910 E0                 4763 	movx	a,@dptr
   1911 FA                 4764 	mov	r2,a
   1912 A3                 4765 	inc	dptr
   1913 E0                 4766 	movx	a,@dptr
   1914 FB                 4767 	mov	r3,a
   1915 90s05rD4           4768 	mov	dptr,#_Adhoc_APPM__Timer__fired_APP_M_1_1
   1918 EA                 4769 	mov	a,r2
   1919 F0                 4770 	movx	@dptr,a
   191A A3                 4771 	inc	dptr
   191B EB                 4772 	mov	a,r3
   191C F0                 4773 	movx	@dptr,a
   191D 90s00r00           4774 	mov	dptr,#_TOS_NODE_ID
   1920 E0                 4775 	movx	a,@dptr
   1921 FA                 4776 	mov	r2,a
   1922 A3                 4777 	inc	dptr
   1923 E0                 4778 	movx	a,@dptr
   1924 FB                 4779 	mov	r3,a
   1925 90s05rD6           4780 	mov	dptr,#(_Adhoc_APPM__Timer__fired_APP_M_1_1 + 0x0002)
   1928 EA                 4781 	mov	a,r2
   1929 F0                 4782 	movx	@dptr,a
   192A A3                 4783 	inc	dptr
   192B EB                 4784 	mov	a,r3
   192C F0                 4785 	movx	@dptr,a
   192D 90s05rD8           4786 	mov	dptr,#(_Adhoc_APPM__Timer__fired_APP_M_1_1 + 0x0004)
   1930 74 BB              4787 	mov	a,#0xBB
   1932 F0                 4788 	movx	@dptr,a
   1933 A3                 4789 	inc	dptr
   1934 74 AA              4790 	mov	a,#0xAA
   1936 F0                 4791 	movx	@dptr,a
   1937 90s05rDA           4792 	mov	dptr,#(_Adhoc_APPM__Timer__fired_APP_M_1_1 + 0x0006)
   193A 74 DD              4793 	mov	a,#0xDD
   193C F0                 4794 	movx	@dptr,a
   193D A3                 4795 	inc	dptr
   193E 74 CC              4796 	mov	a,#0xCC
   1940 F0                 4797 	movx	@dptr,a
   1941 90s05rDC           4798 	mov	dptr,#(_Adhoc_APPM__Timer__fired_APP_M_1_1 + 0x0008)
   1944 74 FF              4799 	mov	a,#0xFF
   1946 F0                 4800 	movx	@dptr,a
   1947 A3                 4801 	inc	dptr
   1948 74 EE              4802 	mov	a,#0xEE
   194A F0                 4803 	movx	@dptr,a
   194B 90s05rDE           4804 	mov	dptr,#(_Adhoc_APPM__Timer__fired_APP_M_1_1 + 0x000a)
   194E 74 34              4805 	mov	a,#0x34
   1950 F0                 4806 	movx	@dptr,a
   1951 A3                 4807 	inc	dptr
   1952 74 12              4808 	mov	a,#0x12
   1954 F0                 4809 	movx	@dptr,a
   1955 90s00r12           4810 	mov	dptr,#_Adhoc_APPM__RF_MSG
   1958 75 F0 00           4811 	mov	b,#0x00
   195B 12s1Ar92           4812 	lcall	_FloodingM__SendFromAPP__getPayload
   195E AA 82              4813 	mov	r2,dpl
   1960 AB 83              4814 	mov	r3,dph
   1962 AC F0              4815 	mov	r4,b
   1964 90s00r00           4816 	mov	dptr,#_memcpy_PARM_2
   1967 74rD4              4817 	mov	a,#_Adhoc_APPM__Timer__fired_APP_M_1_1
   1969 F0                 4818 	movx	@dptr,a
   196A A3                 4819 	inc	dptr
   196B 74s05              4820 	mov	a,#(_Adhoc_APPM__Timer__fired_APP_M_1_1 >> 8)
   196D F0                 4821 	movx	@dptr,a
   196E A3                 4822 	inc	dptr
   196F E4                 4823 	clr	a
   1970 F0                 4824 	movx	@dptr,a
   1971 90s00r00           4825 	mov	dptr,#_memcpy_PARM_3
   1974 74 0C              4826 	mov	a,#0x0C
   1976 F0                 4827 	movx	@dptr,a
   1977 E4                 4828 	clr	a
   1978 A3                 4829 	inc	dptr
   1979 F0                 4830 	movx	@dptr,a
   197A 8A 82              4831 	mov	dpl,r2
   197C 8B 83              4832 	mov	dph,r3
   197E 8C F0              4833 	mov	b,r4
   1980 12s00r00           4834 	lcall	_memcpy
   1983 A2 93              4835 	mov	c,_P1_3
   1985 E4                 4836 	clr	a
   1986 33                 4837 	rlc	a
   1987 FA                 4838 	mov	r2,a
   1988 7B 00              4839 	mov	r3,#0x00
   198A 4B                 4840 	orl	a,r3
   198B 70 04              4841 	jnz	00102$
   198D D2 93              4842 	setb	_P1_3
   198F 80 02              4843 	sjmp	00103$
   1991                    4844 00102$:
   1991 C2 93              4845 	clr	_P1_3
   1993                    4846 00103$:
   1993 90s05r8F           4847 	mov	dptr,#_CC2430ActiveMessageM__Packet__getPayload_PARM_2
   1996 E4                 4848 	clr	a
   1997 F0                 4849 	movx	@dptr,a
   1998 A3                 4850 	inc	dptr
   1999 F0                 4851 	movx	@dptr,a
   199A A3                 4852 	inc	dptr
   199B F0                 4853 	movx	@dptr,a
   199C 90s00r12           4854 	mov	dptr,#_Adhoc_APPM__RF_MSG
   199F 75 F0 00           4855 	mov	b,#0x00
   19A2 12s15r7A           4856 	lcall	_CC2430ActiveMessageM__Packet__getPayload
   19A5 AA 82              4857 	mov	r2,dpl
   19A7 AB 83              4858 	mov	r3,dph
   19A9 AC F0              4859 	mov	r4,b
   19AB 90s05rE2           4860 	mov	dptr,#_Adhoc_APPM__Timer__fired__cil_inline_tmp_2184_1_1
   19AE 74 04              4861 	mov	a,#0x04
   19B0 F0                 4862 	movx	@dptr,a
   19B1 A3                 4863 	inc	dptr
   19B2 E4                 4864 	clr	a
   19B3 F0                 4865 	movx	@dptr,a
   19B4 90s05rE4           4866 	mov	dptr,#(_Adhoc_APPM__Timer__fired__cil_inline_tmp_2184_1_1 + 0x0002)
   19B7 F0                 4867 	movx	@dptr,a
   19B8 A3                 4868 	inc	dptr
   19B9 F0                 4869 	movx	@dptr,a
   19BA 90s00r00           4870 	mov	dptr,#_TOS_NODE_ID
   19BD E0                 4871 	movx	a,@dptr
   19BE FD                 4872 	mov	r5,a
   19BF A3                 4873 	inc	dptr
   19C0 E0                 4874 	movx	a,@dptr
   19C1 FE                 4875 	mov	r6,a
   19C2 90s05rE6           4876 	mov	dptr,#(_Adhoc_APPM__Timer__fired__cil_inline_tmp_2184_1_1 + 0x0004)
   19C5 ED                 4877 	mov	a,r5
   19C6 F0                 4878 	movx	@dptr,a
   19C7 A3                 4879 	inc	dptr
   19C8 EE                 4880 	mov	a,r6
   19C9 F0                 4881 	movx	@dptr,a
   19CA 90s02r0C           4882 	mov	dptr,#_FloodingM__mySequence
   19CD E0                 4883 	movx	a,@dptr
   19CE 90s05rE8           4884 	mov	dptr,#(_Adhoc_APPM__Timer__fired__cil_inline_tmp_2184_1_1 + 0x0006)
   19D1 F0                 4885 	movx	@dptr,a
   19D2 90s05rE9           4886 	mov	dptr,#(_Adhoc_APPM__Timer__fired__cil_inline_tmp_2184_1_1 + 0x0007)
   19D5 74 05              4887 	mov	a,#0x05
   19D7 F0                 4888 	movx	@dptr,a
   19D8 90s05rEA           4889 	mov	dptr,#(_Adhoc_APPM__Timer__fired__cil_inline_tmp_2184_1_1 + 0x0008)
   19DB 74 FE              4890 	mov	a,#0xFE
   19DD F0                 4891 	movx	@dptr,a
   19DE A3                 4892 	inc	dptr
   19DF 74 FF              4893 	mov	a,#0xFF
   19E1 F0                 4894 	movx	@dptr,a
   19E2 90s05rEC           4895 	mov	dptr,#(_Adhoc_APPM__Timer__fired__cil_inline_tmp_2184_1_1 + 0x000a)
   19E5 74 FE              4896 	mov	a,#0xFE
   19E7 F0                 4897 	movx	@dptr,a
   19E8 A3                 4898 	inc	dptr
   19E9 74 FF              4899 	mov	a,#0xFF
   19EB F0                 4900 	movx	@dptr,a
   19EC 90s00r00           4901 	mov	dptr,#_memcpy_PARM_2
   19EF EA                 4902 	mov	a,r2
   19F0 F0                 4903 	movx	@dptr,a
   19F1 A3                 4904 	inc	dptr
   19F2 EB                 4905 	mov	a,r3
   19F3 F0                 4906 	movx	@dptr,a
   19F4 A3                 4907 	inc	dptr
   19F5 EC                 4908 	mov	a,r4
   19F6 F0                 4909 	movx	@dptr,a
   19F7 90s00r00           4910 	mov	dptr,#_memcpy_PARM_3
   19FA 74 0C              4911 	mov	a,#0x0C
   19FC F0                 4912 	movx	@dptr,a
   19FD E4                 4913 	clr	a
   19FE A3                 4914 	inc	dptr
   19FF F0                 4915 	movx	@dptr,a
   1A00 90s05rEE           4916 	mov	dptr,#(_Adhoc_APPM__Timer__fired__cil_inline_tmp_2184_1_1 + 0x000c)
   1A03 75 F0 00           4917 	mov	b,#0x00
   1A06 12s00r00           4918 	lcall	_memcpy
   1A09 90s05r8F           4919 	mov	dptr,#_CC2430ActiveMessageM__Packet__getPayload_PARM_2
   1A0C E4                 4920 	clr	a
   1A0D F0                 4921 	movx	@dptr,a
   1A0E A3                 4922 	inc	dptr
   1A0F F0                 4923 	movx	@dptr,a
   1A10 A3                 4924 	inc	dptr
   1A11 F0                 4925 	movx	@dptr,a
   1A12 90s00rA0           4926 	mov	dptr,#_FloodingM__SendMsg
   1A15 75 F0 00           4927 	mov	b,#0x00
   1A18 12s15r7A           4928 	lcall	_CC2430ActiveMessageM__Packet__getPayload
   1A1B AA 82              4929 	mov	r2,dpl
   1A1D AB 83              4930 	mov	r3,dph
   1A1F AC F0              4931 	mov	r4,b
   1A21 90s00r00           4932 	mov	dptr,#_memcpy_PARM_2
   1A24 74rE2              4933 	mov	a,#_Adhoc_APPM__Timer__fired__cil_inline_tmp_2184_1_1
   1A26 F0                 4934 	movx	@dptr,a
   1A27 A3                 4935 	inc	dptr
   1A28 74s05              4936 	mov	a,#(_Adhoc_APPM__Timer__fired__cil_inline_tmp_2184_1_1 >> 8)
   1A2A F0                 4937 	movx	@dptr,a
   1A2B A3                 4938 	inc	dptr
   1A2C E4                 4939 	clr	a
   1A2D F0                 4940 	movx	@dptr,a
   1A2E 90s00r00           4941 	mov	dptr,#_memcpy_PARM_3
   1A31 74 18              4942 	mov	a,#0x18
   1A33 F0                 4943 	movx	@dptr,a
   1A34 E4                 4944 	clr	a
   1A35 A3                 4945 	inc	dptr
   1A36 F0                 4946 	movx	@dptr,a
   1A37 8A 82              4947 	mov	dpl,r2
   1A39 8B 83              4948 	mov	dph,r3
   1A3B 8C F0              4949 	mov	b,r4
   1A3D 12s00r00           4950 	lcall	_memcpy
   1A40 90s02r0C           4951 	mov	dptr,#_FloodingM__mySequence
   1A43 E0                 4952 	movx	a,@dptr
   1A44 90s02r0C           4953 	mov	dptr,#_FloodingM__mySequence
   1A47 04                 4954 	inc	a
   1A48 F0                 4955 	movx	@dptr,a
   1A49 90s02r0C           4956 	mov	dptr,#_FloodingM__mySequence
   1A4C E0                 4957 	movx	a,@dptr
   1A4D FA                 4958 	mov	r2,a
   1A4E 90s02r0C           4959 	mov	dptr,#_FloodingM__mySequence
   1A51 75 F0 FF           4960 	mov	b,#0xFF
   1A54 EA                 4961 	mov	a,r2
   1A55 84                 4962 	div	ab
   1A56 E5 F0              4963 	mov	a,b
   1A58 F0                 4964 	movx	@dptr,a
   1A59 90s02r08           4965 	mov	dptr,#_FloodingM__Next_Addr
   1A5C E0                 4966 	movx	a,@dptr
   1A5D FA                 4967 	mov	r2,a
   1A5E A3                 4968 	inc	dptr
   1A5F E0                 4969 	movx	a,@dptr
   1A60 FB                 4970 	mov	r3,a
   1A61 90s05rFD           4971 	mov	dptr,#_AMQueueEntryP__0__AMSend__send_PARM_2
   1A64 74rA0              4972 	mov	a,#_FloodingM__SendMsg
   1A66 F0                 4973 	movx	@dptr,a
   1A67 A3                 4974 	inc	dptr
   1A68 74s00              4975 	mov	a,#(_FloodingM__SendMsg >> 8)
   1A6A F0                 4976 	movx	@dptr,a
   1A6B A3                 4977 	inc	dptr
   1A6C E4                 4978 	clr	a
   1A6D F0                 4979 	movx	@dptr,a
   1A6E 90s06r00           4980 	mov	dptr,#_AMQueueEntryP__0__AMSend__send_PARM_3
   1A71 74 18              4981 	mov	a,#0x18
   1A73 F0                 4982 	movx	@dptr,a
   1A74 8A 82              4983 	mov	dpl,r2
   1A76 8B 83              4984 	mov	dph,r3
   1A78 12s1ArBF           4985 	lcall	_AMQueueEntryP__0__AMSend__send
   1A7B E5 82              4986 	mov	a,dpl
   1A7D FA                 4987 	mov	r2,a
   1A7E 70 0C              4988 	jnz	00105$
   1A80 90s00rA0           4989 	mov	dptr,#_FloodingM__SendMsg
   1A83 F5 F0              4990 	mov	b,a
   1A85 C0 02              4991 	push	ar2
   1A87 12s16rA0           4992 	lcall	_FloodingM__insertMSGtoRTable
   1A8A D0 02              4993 	pop	ar2
   1A8C                    4994 00105$:
   1A8C EA                 4995 	mov	a,r2
   1A8D 70 02              4996 	jnz	00107$
   1A8F C2 94              4997 	clr	_P1_4
   1A91                    4998 00107$:
   1A91 22                 4999 	ret
                           5000 ;------------------------------------------------------------
                           5001 ;Allocation info for local variables in function 'FloodingM__SendFromAPP__getPayload'
                           5002 ;------------------------------------------------------------
                           5003 ;msg                       Allocated with name '_FloodingM__SendFromAPP__getPayload_msg_1_1'
                           5004 ;_cil_inline_tmp_2255      Allocated with name '_FloodingM__SendFromAPP__getPayload__cil_inline_tmp_2255_1_1'
                           5005 ;------------------------------------------------------------
                           5006 ;	-----------------------------------------
                           5007 ;	 function FloodingM__SendFromAPP__getPayload
                           5008 ;	-----------------------------------------
   1A92                    5009 _FloodingM__SendFromAPP__getPayload:
   1A92 AA F0              5010 	mov	r2,b
   1A94 AB 83              5011 	mov	r3,dph
   1A96 E5 82              5012 	mov	a,dpl
   1A98 90s05rFA           5013 	mov	dptr,#_FloodingM__SendFromAPP__getPayload_msg_1_1
   1A9B F0                 5014 	movx	@dptr,a
   1A9C A3                 5015 	inc	dptr
   1A9D EB                 5016 	mov	a,r3
   1A9E F0                 5017 	movx	@dptr,a
   1A9F A3                 5018 	inc	dptr
   1AA0 EA                 5019 	mov	a,r2
   1AA1 F0                 5020 	movx	@dptr,a
   1AA2 90s05rFA           5021 	mov	dptr,#_FloodingM__SendFromAPP__getPayload_msg_1_1
   1AA5 E0                 5022 	movx	a,@dptr
   1AA6 FA                 5023 	mov	r2,a
   1AA7 A3                 5024 	inc	dptr
   1AA8 E0                 5025 	movx	a,@dptr
   1AA9 FB                 5026 	mov	r3,a
   1AAA A3                 5027 	inc	dptr
   1AAB E0                 5028 	movx	a,@dptr
   1AAC FC                 5029 	mov	r4,a
   1AAD 90s05r8F           5030 	mov	dptr,#_CC2430ActiveMessageM__Packet__getPayload_PARM_2
   1AB0 E4                 5031 	clr	a
   1AB1 F0                 5032 	movx	@dptr,a
   1AB2 A3                 5033 	inc	dptr
   1AB3 F0                 5034 	movx	@dptr,a
   1AB4 A3                 5035 	inc	dptr
   1AB5 F0                 5036 	movx	@dptr,a
   1AB6 8A 82              5037 	mov	dpl,r2
   1AB8 8B 83              5038 	mov	dph,r3
   1ABA 8C F0              5039 	mov	b,r4
   1ABC 02s15r7A           5040 	ljmp	_CC2430ActiveMessageM__Packet__getPayload
                           5041 ;------------------------------------------------------------
                           5042 ;Allocation info for local variables in function 'AMQueueEntryP__0__AMSend__send'
                           5043 ;------------------------------------------------------------
                           5044 ;sloc0                     Allocated with name '_AMQueueEntryP__0__AMSend__send_sloc0_1_0'
                           5045 ;sloc1                     Allocated with name '_AMQueueEntryP__0__AMSend__send_sloc1_1_0'
                           5046 ;msg                       Allocated with name '_AMQueueEntryP__0__AMSend__send_PARM_2'
                           5047 ;len                       Allocated with name '_AMQueueEntryP__0__AMSend__send_PARM_3'
                           5048 ;dest                      Allocated with name '_AMQueueEntryP__0__AMSend__send_dest_1_1'
                           5049 ;_cil_inline_tmp_2270      Allocated with name '_AMQueueEntryP__0__AMSend__send__cil_inline_tmp_2270_1_1'
                           5050 ;_cil_inline_tmp_2286      Allocated with name '_AMQueueEntryP__0__AMSend__send__cil_inline_tmp_2286_1_1'
                           5051 ;_cil_inline_tmp_2292      Allocated with name '_AMQueueEntryP__0__AMSend__send__cil_inline_tmp_2292_1_1'
                           5052 ;_cil_inline_tmp_2300      Allocated with name '_AMQueueEntryP__0__AMSend__send__cil_inline_tmp_2300_1_1'
                           5053 ;------------------------------------------------------------
                           5054 ;	-----------------------------------------
                           5055 ;	 function AMQueueEntryP__0__AMSend__send
                           5056 ;	-----------------------------------------
   1ABF                    5057 _AMQueueEntryP__0__AMSend__send:
   1ABF AA 83              5058 	mov	r2,dph
   1AC1 E5 82              5059 	mov	a,dpl
   1AC3 90s06r01           5060 	mov	dptr,#_AMQueueEntryP__0__AMSend__send_dest_1_1
   1AC6 F0                 5061 	movx	@dptr,a
   1AC7 A3                 5062 	inc	dptr
   1AC8 EA                 5063 	mov	a,r2
   1AC9 F0                 5064 	movx	@dptr,a
   1ACA 90s05rFD           5065 	mov	dptr,#_AMQueueEntryP__0__AMSend__send_PARM_2
   1ACD E0                 5066 	movx	a,@dptr
   1ACE FA                 5067 	mov	r2,a
   1ACF A3                 5068 	inc	dptr
   1AD0 E0                 5069 	movx	a,@dptr
   1AD1 FB                 5070 	mov	r3,a
   1AD2 A3                 5071 	inc	dptr
   1AD3 E0                 5072 	movx	a,@dptr
   1AD4 FC                 5073 	mov	r4,a
   1AD5 74 06              5074 	mov	a,#0x06
   1AD7 2A                 5075 	add	a,r2
   1AD8 F5*10              5076 	mov	_AMQueueEntryP__0__AMSend__send_sloc1_1_0,a
   1ADA E4                 5077 	clr	a
   1ADB 3B                 5078 	addc	a,r3
   1ADC F5*11              5079 	mov	(_AMQueueEntryP__0__AMSend__send_sloc1_1_0 + 1),a
   1ADE 8C*12              5080 	mov	(_AMQueueEntryP__0__AMSend__send_sloc1_1_0 + 2),r4
   1AE0 90s06r01           5081 	mov	dptr,#_AMQueueEntryP__0__AMSend__send_dest_1_1
   1AE3 E0                 5082 	movx	a,@dptr
   1AE4 F8                 5083 	mov	r0,a
   1AE5 A3                 5084 	inc	dptr
   1AE6 E0                 5085 	movx	a,@dptr
   1AE7 F9                 5086 	mov	r1,a
   1AE8 85*10 82           5087 	mov	dpl,_AMQueueEntryP__0__AMSend__send_sloc1_1_0
   1AEB 85*11 83           5088 	mov	dph,(_AMQueueEntryP__0__AMSend__send_sloc1_1_0 + 1)
   1AEE 85*12 F0           5089 	mov	b,(_AMQueueEntryP__0__AMSend__send_sloc1_1_0 + 2)
   1AF1 E8                 5090 	mov	a,r0
   1AF2 12s00r00           5091 	lcall	__gptrput
   1AF5 A3                 5092 	inc	dptr
   1AF6 E9                 5093 	mov	a,r1
   1AF7 12s00r00           5094 	lcall	__gptrput
   1AFA 74 0A              5095 	mov	a,#0x0A
   1AFC 2A                 5096 	add	a,r2
   1AFD F5*0D              5097 	mov	_AMQueueEntryP__0__AMSend__send_sloc0_1_0,a
   1AFF E4                 5098 	clr	a
   1B00 3B                 5099 	addc	a,r3
   1B01 F5*0E              5100 	mov	(_AMQueueEntryP__0__AMSend__send_sloc0_1_0 + 1),a
   1B03 8C*0F              5101 	mov	(_AMQueueEntryP__0__AMSend__send_sloc0_1_0 + 2),r4
   1B05 85*0D 82           5102 	mov	dpl,_AMQueueEntryP__0__AMSend__send_sloc0_1_0
   1B08 85*0E 83           5103 	mov	dph,(_AMQueueEntryP__0__AMSend__send_sloc0_1_0 + 1)
   1B0B 85*0F F0           5104 	mov	b,(_AMQueueEntryP__0__AMSend__send_sloc0_1_0 + 2)
   1B0E 74 0B              5105 	mov	a,#0x0B
   1B10 12s00r00           5106 	lcall	__gptrput
   1B13 90s04r05           5107 	mov	dptr,#_AMQueueImplP__0__queue
   1B16 E0                 5108 	movx	a,@dptr
   1B17 F8                 5109 	mov	r0,a
   1B18 A3                 5110 	inc	dptr
   1B19 E0                 5111 	movx	a,@dptr
   1B1A F9                 5112 	mov	r1,a
   1B1B A3                 5113 	inc	dptr
   1B1C E0                 5114 	movx	a,@dptr
   1B1D FD                 5115 	mov	r5,a
   1B1E B8 00 05           5116 	cjne	r0,#0x00,00113$
   1B21 B9 00 02           5117 	cjne	r1,#0x00,00113$
   1B24 80 09              5118 	sjmp	00102$
   1B26                    5119 00113$:
   1B26 90s06r03           5120 	mov	dptr,#_AMQueueEntryP__0__AMSend__send__cil_inline_tmp_2270_1_1
   1B29 74 05              5121 	mov	a,#0x05
   1B2B F0                 5122 	movx	@dptr,a
   1B2C 02s1BrB1           5123 	ljmp	00107$
   1B2F                    5124 00102$:
   1B2F 90s04r05           5125 	mov	dptr,#_AMQueueImplP__0__queue
   1B32 EA                 5126 	mov	a,r2
   1B33 F0                 5127 	movx	@dptr,a
   1B34 A3                 5128 	inc	dptr
   1B35 EB                 5129 	mov	a,r3
   1B36 F0                 5130 	movx	@dptr,a
   1B37 A3                 5131 	inc	dptr
   1B38 EC                 5132 	mov	a,r4
   1B39 F0                 5133 	movx	@dptr,a
   1B3A 90s06r00           5134 	mov	dptr,#_AMQueueEntryP__0__AMSend__send_PARM_3
   1B3D E0                 5135 	movx	a,@dptr
   1B3E FD                 5136 	mov	r5,a
   1B3F 8A 82              5137 	mov	dpl,r2
   1B41 8B 83              5138 	mov	dph,r3
   1B43 8C F0              5139 	mov	b,r4
   1B45 12s00r00           5140 	lcall	__gptrput
   1B48 90s00r07           5141 	mov	dptr,#_AMQueueImplP__0__current
   1B4B E0                 5142 	movx	a,@dptr
   1B4C FE                 5143 	mov	r6,a
   1B4D BE FF 5C           5144 	cjne	r6,#0xFF,00106$
   1B50 85*0D 82           5145 	mov	dpl,_AMQueueEntryP__0__AMSend__send_sloc0_1_0
   1B53 85*0E 83           5146 	mov	dph,(_AMQueueEntryP__0__AMSend__send_sloc0_1_0 + 1)
   1B56 85*0F F0           5147 	mov	b,(_AMQueueEntryP__0__AMSend__send_sloc0_1_0 + 2)
   1B59 12s00r00           5148 	lcall	__gptrget
   1B5C FE                 5149 	mov	r6,a
   1B5D 85*10 82           5150 	mov	dpl,_AMQueueEntryP__0__AMSend__send_sloc1_1_0
   1B60 85*11 83           5151 	mov	dph,(_AMQueueEntryP__0__AMSend__send_sloc1_1_0 + 1)
   1B63 85*12 F0           5152 	mov	b,(_AMQueueEntryP__0__AMSend__send_sloc1_1_0 + 2)
   1B66 12s00r00           5153 	lcall	__gptrget
   1B69 FF                 5154 	mov	r7,a
   1B6A A3                 5155 	inc	dptr
   1B6B 12s00r00           5156 	lcall	__gptrget
   1B6E F8                 5157 	mov	r0,a
   1B6F 90s00r07           5158 	mov	dptr,#_AMQueueImplP__0__current
   1B72 E4                 5159 	clr	a
   1B73 F0                 5160 	movx	@dptr,a
   1B74 90s05r7C           5161 	mov	dptr,#_CC2430ActiveMessageM__AMSend__send_PARM_2
   1B77 EF                 5162 	mov	a,r7
   1B78 F0                 5163 	movx	@dptr,a
   1B79 A3                 5164 	inc	dptr
   1B7A E8                 5165 	mov	a,r0
   1B7B F0                 5166 	movx	@dptr,a
   1B7C 90s05r7E           5167 	mov	dptr,#_CC2430ActiveMessageM__AMSend__send_PARM_3
   1B7F EA                 5168 	mov	a,r2
   1B80 F0                 5169 	movx	@dptr,a
   1B81 A3                 5170 	inc	dptr
   1B82 EB                 5171 	mov	a,r3
   1B83 F0                 5172 	movx	@dptr,a
   1B84 A3                 5173 	inc	dptr
   1B85 EC                 5174 	mov	a,r4
   1B86 F0                 5175 	movx	@dptr,a
   1B87 90s05r81           5176 	mov	dptr,#_CC2430ActiveMessageM__AMSend__send_PARM_4
   1B8A ED                 5177 	mov	a,r5
   1B8B F0                 5178 	movx	@dptr,a
   1B8C 8E 82              5179 	mov	dpl,r6
   1B8E 12s12r61           5180 	lcall	_CC2430ActiveMessageM__AMSend__send
   1B91 E5 82              5181 	mov	a,dpl
   1B93 FA                 5182 	mov	r2,a
   1B94 60 0F              5183 	jz	00104$
   1B96 90s00r07           5184 	mov	dptr,#_AMQueueImplP__0__current
   1B99 74 FF              5185 	mov	a,#0xFF
   1B9B F0                 5186 	movx	@dptr,a
   1B9C 90s04r05           5187 	mov	dptr,#_AMQueueImplP__0__queue
   1B9F E4                 5188 	clr	a
   1BA0 F0                 5189 	movx	@dptr,a
   1BA1 A3                 5190 	inc	dptr
   1BA2 F0                 5191 	movx	@dptr,a
   1BA3 A3                 5192 	inc	dptr
   1BA4 F0                 5193 	movx	@dptr,a
   1BA5                    5194 00104$:
   1BA5 90s06r03           5195 	mov	dptr,#_AMQueueEntryP__0__AMSend__send__cil_inline_tmp_2270_1_1
   1BA8 EA                 5196 	mov	a,r2
   1BA9 F0                 5197 	movx	@dptr,a
   1BAA 80 05              5198 	sjmp	00107$
   1BAC                    5199 00106$:
   1BAC 90s06r03           5200 	mov	dptr,#_AMQueueEntryP__0__AMSend__send__cil_inline_tmp_2270_1_1
   1BAF E4                 5201 	clr	a
   1BB0 F0                 5202 	movx	@dptr,a
   1BB1                    5203 00107$:
   1BB1 90s06r03           5204 	mov	dptr,#_AMQueueEntryP__0__AMSend__send__cil_inline_tmp_2270_1_1
   1BB4 E0                 5205 	movx	a,@dptr
   1BB5 F5 82              5206 	mov	dpl,a
   1BB7 22                 5207 	ret
                           5208 ;------------------------------------------------------------
                           5209 ;Allocation info for local variables in function 'HplSCS_Clock_Timer1P__Alarm__start'
                           5210 ;------------------------------------------------------------
                           5211 ;dt                        Allocated with name '_HplSCS_Clock_Timer1P__Alarm__start_dt_1_1'
                           5212 ;r                         Allocated with name '_HplSCS_Clock_Timer1P__Alarm__start_r_1_1'
                           5213 ;------------------------------------------------------------
                           5214 ;	-----------------------------------------
                           5215 ;	 function HplSCS_Clock_Timer1P__Alarm__start
                           5216 ;	-----------------------------------------
   1BB8                    5217 _HplSCS_Clock_Timer1P__Alarm__start:
   1BB8 E5 82              5218 	mov	a,dpl
   1BBA 90s06r04           5219 	mov	dptr,#_HplSCS_Clock_Timer1P__Alarm__start_dt_1_1
   1BBD F0                 5220 	movx	@dptr,a
   1BBE 90s06r04           5221 	mov	dptr,#_HplSCS_Clock_Timer1P__Alarm__start_dt_1_1
   1BC1 E0                 5222 	movx	a,@dptr
   1BC2 90s06r05           5223 	mov	dptr,#_HplSCS_Clock_Timer1P__Alarm__start_r_1_1
   1BC5 75 F0 7D           5224 	mov	b,#0x7D
   1BC8 A4                 5225 	mul	ab
   1BC9 F0                 5226 	movx	@dptr,a
   1BCA A3                 5227 	inc	dptr
   1BCB E5 F0              5228 	mov	a,b
   1BCD F0                 5229 	movx	@dptr,a
   1BCE 90s06r05           5230 	mov	dptr,#_HplSCS_Clock_Timer1P__Alarm__start_r_1_1
   1BD1 E0                 5231 	movx	a,@dptr
   1BD2 F5 DA              5232 	mov	_T1CC0L,a
   1BD4 90s06r06           5233 	mov	dptr,#(_HplSCS_Clock_Timer1P__Alarm__start_r_1_1 + 0x0001)
   1BD7 75 F0 00           5234 	mov	b,#0x00
   1BDA 12s00r00           5235 	lcall	__gptrget
   1BDD F5 DB              5236 	mov	_T1CC0H,a
   1BDF 22                 5237 	ret
                           5238 ;------------------------------------------------------------
                           5239 ;Allocation info for local variables in function 'CC2430ActiveMessageM__CC2430_TX_RX__sendPacketDone'
                           5240 ;------------------------------------------------------------
                           5241 ;err                       Allocated with name '_CC2430ActiveMessageM__CC2430_TX_RX__sendPacketDone_err_1_1'
                           5242 ;_cil_inline_tmp_2305      Allocated with name '_CC2430ActiveMessageM__CC2430_TX_RX__sendPacketDone__cil_inline_tmp_2305_1_1'
                           5243 ;------------------------------------------------------------
                           5244 ;	-----------------------------------------
                           5245 ;	 function CC2430ActiveMessageM__CC2430_TX_RX__sendPacketDone
                           5246 ;	-----------------------------------------
   1BE0                    5247 _CC2430ActiveMessageM__CC2430_TX_RX__sendPacketDone:
   1BE0 E5 82              5248 	mov	a,dpl
   1BE2 90s06r07           5249 	mov	dptr,#_CC2430ActiveMessageM__CC2430_TX_RX__sendPacketDone_err_1_1
   1BE5 F0                 5250 	movx	@dptr,a
   1BE6 90s02r76           5251 	mov	dptr,#_CC2430ActiveMessageM__RF_Status
   1BE9 74 01              5252 	mov	a,#0x01
   1BEB F0                 5253 	movx	@dptr,a
   1BEC 90s02r78           5254 	mov	dptr,#_CC2430ActiveMessageM__NumReTX
   1BEF E4                 5255 	clr	a
   1BF0 F0                 5256 	movx	@dptr,a
   1BF1 90s02r7A           5257 	mov	dptr,#_CC2430ActiveMessageM__TX_Ready_Msg
   1BF4 E0                 5258 	movx	a,@dptr
   1BF5 FA                 5259 	mov	r2,a
   1BF6 A3                 5260 	inc	dptr
   1BF7 E0                 5261 	movx	a,@dptr
   1BF8 FB                 5262 	mov	r3,a
   1BF9 A3                 5263 	inc	dptr
   1BFA E0                 5264 	movx	a,@dptr
   1BFB FC                 5265 	mov	r4,a
   1BFC 90s06r07           5266 	mov	dptr,#_CC2430ActiveMessageM__CC2430_TX_RX__sendPacketDone_err_1_1
   1BFF E0                 5267 	movx	a,@dptr
   1C00 90s05r8A           5268 	mov	dptr,#_AMQueueImplP__0__AMSend__sendDone_PARM_2
   1C03 F0                 5269 	movx	@dptr,a
   1C04 8A 82              5270 	mov	dpl,r2
   1C06 8B 83              5271 	mov	dph,r3
   1C08 8C F0              5272 	mov	b,r4
   1C0A 02s15r13           5273 	ljmp	_AMQueueImplP__0__AMSend__sendDone
                           5274 ;------------------------------------------------------------
                           5275 ;Allocation info for local variables in function 'RandomC__Random__rand16'
                           5276 ;------------------------------------------------------------
                           5277 ;tmp                       Allocated with name '_RandomC__Random__rand16_tmp_1_1'
                           5278 ;------------------------------------------------------------
                           5279 ;	-----------------------------------------
                           5280 ;	 function RandomC__Random__rand16
                           5281 ;	-----------------------------------------
   1C0D                    5282 _RandomC__Random__rand16:
   1C0D 90s02r74           5283 	mov	dptr,#_RandomC__randValue16
   1C10 E0                 5284 	movx	a,@dptr
   1C11 FA                 5285 	mov	r2,a
   1C12 A3                 5286 	inc	dptr
   1C13 E0                 5287 	movx	a,@dptr
   1C14 FB                 5288 	mov	r3,a
   1C15 90s00r00           5289 	mov	dptr,#__mulint_PARM_2
   1C18 EA                 5290 	mov	a,r2
   1C19 F0                 5291 	movx	@dptr,a
   1C1A A3                 5292 	inc	dptr
   1C1B EB                 5293 	mov	a,r3
   1C1C F0                 5294 	movx	@dptr,a
   1C1D 90 00 85           5295 	mov	dptr,#0x0085
   1C20 12s00r00           5296 	lcall	__mulint
   1C23 E5 82              5297 	mov	a,dpl
   1C25 85 83 F0           5298 	mov	b,dph
   1C28 90s02r74           5299 	mov	dptr,#_RandomC__randValue16
   1C2B F0                 5300 	movx	@dptr,a
   1C2C A3                 5301 	inc	dptr
   1C2D E5 F0              5302 	mov	a,b
   1C2F F0                 5303 	movx	@dptr,a
   1C30 90s02r71           5304 	mov	dptr,#_RandomC__RSeq
   1C33 E0                 5305 	movx	a,@dptr
   1C34 FA                 5306 	mov	r2,a
   1C35 90s06r08           5307 	mov	dptr,#_RandomC__Random__rand16_tmp_1_1
   1C38 F0                 5308 	movx	@dptr,a
   1C39 90s02r71           5309 	mov	dptr,#_RandomC__RSeq
   1C3C EA                 5310 	mov	a,r2
   1C3D 04                 5311 	inc	a
   1C3E F0                 5312 	movx	@dptr,a
   1C3F 90s06r08           5313 	mov	dptr,#_RandomC__Random__rand16_tmp_1_1
   1C42 E0                 5314 	movx	a,@dptr
   1C43 FA                 5315 	mov	r2,a
   1C44 7B 00              5316 	mov	r3,#0x00
   1C46 90s02r74           5317 	mov	dptr,#_RandomC__randValue16
   1C49 E0                 5318 	movx	a,@dptr
   1C4A FC                 5319 	mov	r4,a
   1C4B A3                 5320 	inc	dptr
   1C4C E0                 5321 	movx	a,@dptr
   1C4D FD                 5322 	mov	r5,a
   1C4E 90s02r74           5323 	mov	dptr,#_RandomC__randValue16
   1C51 EA                 5324 	mov	a,r2
   1C52 2C                 5325 	add	a,r4
   1C53 F0                 5326 	movx	@dptr,a
   1C54 EB                 5327 	mov	a,r3
   1C55 3D                 5328 	addc	a,r5
   1C56 A3                 5329 	inc	dptr
   1C57 F0                 5330 	movx	@dptr,a
   1C58 90s02r74           5331 	mov	dptr,#_RandomC__randValue16
   1C5B E0                 5332 	movx	a,@dptr
   1C5C FA                 5333 	mov	r2,a
   1C5D A3                 5334 	inc	dptr
   1C5E E0                 5335 	movx	a,@dptr
   1C5F 8A 82              5336 	mov	dpl,r2
   1C61 F5 83              5337 	mov	dph,a
   1C63 22                 5338 	ret
                           5339 ;------------------------------------------------------------
                           5340 ;Allocation info for local variables in function 'crcByte'
                           5341 ;------------------------------------------------------------
                           5342 ;b                         Allocated with name '_crcByte_PARM_2'
                           5343 ;crc                       Allocated with name '_crcByte_crc_1_1'
                           5344 ;i                         Allocated with name '_crcByte_i_1_1'
                           5345 ;------------------------------------------------------------
                           5346 ;	-----------------------------------------
                           5347 ;	 function crcByte
                           5348 ;	-----------------------------------------
   1C64                    5349 _crcByte:
   1C64 AA 83              5350 	mov	r2,dph
   1C66 E5 82              5351 	mov	a,dpl
   1C68 90s06r0A           5352 	mov	dptr,#_crcByte_crc_1_1
   1C6B F0                 5353 	movx	@dptr,a
   1C6C A3                 5354 	inc	dptr
   1C6D EA                 5355 	mov	a,r2
   1C6E F0                 5356 	movx	@dptr,a
   1C6F 90s06r09           5357 	mov	dptr,#_crcByte_PARM_2
   1C72 E0                 5358 	movx	a,@dptr
   1C73 FB                 5359 	mov	r3,a
   1C74 7A 00              5360 	mov	r2,#0x00
   1C76 90s06r0A           5361 	mov	dptr,#_crcByte_crc_1_1
   1C79 E0                 5362 	movx	a,@dptr
   1C7A FC                 5363 	mov	r4,a
   1C7B A3                 5364 	inc	dptr
   1C7C E0                 5365 	movx	a,@dptr
   1C7D FD                 5366 	mov	r5,a
   1C7E 90s06r0A           5367 	mov	dptr,#_crcByte_crc_1_1
   1C81 EA                 5368 	mov	a,r2
   1C82 6C                 5369 	xrl	a,r4
   1C83 F0                 5370 	movx	@dptr,a
   1C84 EB                 5371 	mov	a,r3
   1C85 6D                 5372 	xrl	a,r5
   1C86 A3                 5373 	inc	dptr
   1C87 F0                 5374 	movx	@dptr,a
   1C88 7A 08              5375 	mov	r2,#0x08
   1C8A                    5376 00107$:
   1C8A 90s06r0A           5377 	mov	dptr,#_crcByte_crc_1_1
   1C8D E0                 5378 	movx	a,@dptr
   1C8E FB                 5379 	mov	r3,a
   1C8F A3                 5380 	inc	dptr
   1C90 E0                 5381 	movx	a,@dptr
   1C91 FC                 5382 	mov	r4,a
   1C92 8B 05              5383 	mov	ar5,r3
   1C94 8C 06              5384 	mov	ar6,r4
   1C96 E4                 5385 	clr	a
   1C97 FF                 5386 	mov	r7,a
   1C98 F8                 5387 	mov	r0,a
   1C99 EE                 5388 	mov	a,r6
   1C9A 20 E7 06           5389 	jb	acc.7,00115$
   1C9D EF                 5390 	mov	a,r7
   1C9E 70 03              5391 	jnz	00115$
   1CA0 E8                 5392 	mov	a,r0
   1CA1 60 17              5393 	jz	00102$
   1CA3                    5394 00115$:
   1CA3 8B 05              5395 	mov	ar5,r3
   1CA5 EC                 5396 	mov	a,r4
   1CA6 CD                 5397 	xch	a,r5
   1CA7 25 E0              5398 	add	a,acc
   1CA9 CD                 5399 	xch	a,r5
   1CAA 33                 5400 	rlc	a
   1CAB FE                 5401 	mov	r6,a
   1CAC 90s06r0A           5402 	mov	dptr,#_crcByte_crc_1_1
   1CAF 74 21              5403 	mov	a,#0x21
   1CB1 6D                 5404 	xrl	a,r5
   1CB2 F0                 5405 	movx	@dptr,a
   1CB3 74 10              5406 	mov	a,#0x10
   1CB5 6E                 5407 	xrl	a,r6
   1CB6 A3                 5408 	inc	dptr
   1CB7 F0                 5409 	movx	@dptr,a
   1CB8 80 0F              5410 	sjmp	00103$
   1CBA                    5411 00102$:
   1CBA EC                 5412 	mov	a,r4
   1CBB CB                 5413 	xch	a,r3
   1CBC 25 E0              5414 	add	a,acc
   1CBE CB                 5415 	xch	a,r3
   1CBF 33                 5416 	rlc	a
   1CC0 FC                 5417 	mov	r4,a
   1CC1 90s06r0A           5418 	mov	dptr,#_crcByte_crc_1_1
   1CC4 EB                 5419 	mov	a,r3
   1CC5 F0                 5420 	movx	@dptr,a
   1CC6 A3                 5421 	inc	dptr
   1CC7 EC                 5422 	mov	a,r4
   1CC8 F0                 5423 	movx	@dptr,a
   1CC9                    5424 00103$:
   1CC9 DA BF              5425 	djnz	r2,00107$
   1CCB 90s06r0A           5426 	mov	dptr,#_crcByte_crc_1_1
   1CCE E0                 5427 	movx	a,@dptr
   1CCF FA                 5428 	mov	r2,a
   1CD0 A3                 5429 	inc	dptr
   1CD1 E0                 5430 	movx	a,@dptr
   1CD2 8A 82              5431 	mov	dpl,r2
   1CD4 F5 83              5432 	mov	dph,a
   1CD6 22                 5433 	ret
                           5434 ;------------------------------------------------------------
                           5435 ;Allocation info for local variables in function 'RandomC__SeedInit__init'
                           5436 ;------------------------------------------------------------
                           5437 ;param                     Allocated with name '_RandomC__SeedInit__init_param_1_1'
                           5438 ;CurrentT                  Allocated with name '_RandomC__SeedInit__init_CurrentT_1_1'
                           5439 ;------------------------------------------------------------
                           5440 ;	-----------------------------------------
                           5441 ;	 function RandomC__SeedInit__init
                           5442 ;	-----------------------------------------
   1CD7                    5443 _RandomC__SeedInit__init:
   1CD7 AA 83              5444 	mov	r2,dph
   1CD9 E5 82              5445 	mov	a,dpl
   1CDB 90s06r0C           5446 	mov	dptr,#_RandomC__SeedInit__init_param_1_1
   1CDE F0                 5447 	movx	@dptr,a
   1CDF A3                 5448 	inc	dptr
   1CE0 EA                 5449 	mov	a,r2
   1CE1 F0                 5450 	movx	@dptr,a
   1CE2 AA E2              5451 	mov	r2,_T1CNTL
   1CE4 8A 03              5452 	mov	ar3,r2
   1CE6 7A 00              5453 	mov	r2,#0x00
   1CE8 AC E3              5454 	mov	r4,_T1CNTH
   1CEA 7D 00              5455 	mov	r5,#0x00
   1CEC EC                 5456 	mov	a,r4
   1CED 42 02              5457 	orl	ar2,a
   1CEF ED                 5458 	mov	a,r5
   1CF0 42 03              5459 	orl	ar3,a
   1CF2 90s00r00           5460 	mov	dptr,#_TOS_NODE_ID
   1CF5 E0                 5461 	movx	a,@dptr
   1CF6 FC                 5462 	mov	r4,a
   1CF7 A3                 5463 	inc	dptr
   1CF8 E0                 5464 	movx	a,@dptr
   1CF9 FD                 5465 	mov	r5,a
   1CFA 90s06r0C           5466 	mov	dptr,#_RandomC__SeedInit__init_param_1_1
   1CFD E0                 5467 	movx	a,@dptr
   1CFE FE                 5468 	mov	r6,a
   1CFF A3                 5469 	inc	dptr
   1D00 E0                 5470 	movx	a,@dptr
   1D01 FF                 5471 	mov	r7,a
   1D02 EC                 5472 	mov	a,r4
   1D03 2E                 5473 	add	a,r6
   1D04 FE                 5474 	mov	r6,a
   1D05 ED                 5475 	mov	a,r5
   1D06 3F                 5476 	addc	a,r7
   1D07 FF                 5477 	mov	r7,a
   1D08 EA                 5478 	mov	a,r2
   1D09 2E                 5479 	add	a,r6
   1D0A FA                 5480 	mov	r2,a
   1D0B EB                 5481 	mov	a,r3
   1D0C 3F                 5482 	addc	a,r7
   1D0D FB                 5483 	mov	r3,a
   1D0E 90s02r72           5484 	mov	dptr,#_RandomC__Rseed
   1D11 EA                 5485 	mov	a,r2
   1D12 F0                 5486 	movx	@dptr,a
   1D13 A3                 5487 	inc	dptr
   1D14 EB                 5488 	mov	a,r3
   1D15 F0                 5489 	movx	@dptr,a
   1D16 90s02r74           5490 	mov	dptr,#_RandomC__randValue16
   1D19 74 1F              5491 	mov	a,#0x1F
   1D1B 2A                 5492 	add	a,r2
   1D1C F0                 5493 	movx	@dptr,a
   1D1D E4                 5494 	clr	a
   1D1E 3B                 5495 	addc	a,r3
   1D1F A3                 5496 	inc	dptr
   1D20 F0                 5497 	movx	@dptr,a
   1D21 90s02r71           5498 	mov	dptr,#_RandomC__RSeq
   1D24 EC                 5499 	mov	a,r4
   1D25 F0                 5500 	movx	@dptr,a
   1D26 75 82 00           5501 	mov	dpl,#0x00
   1D29 22                 5502 	ret
                           5503 ;------------------------------------------------------------
                           5504 ;Allocation info for local variables in function '__vector_9'
                           5505 ;------------------------------------------------------------
                           5506 ;_cil_inline_tmp_2308      Allocated with name '___vector_9__cil_inline_tmp_2308_1_1'
                           5507 ;------------------------------------------------------------
                           5508 ;	-----------------------------------------
                           5509 ;	 function __vector_9
                           5510 ;	-----------------------------------------
   1D2A                    5511 ___vector_9:
   1D2A C0*00              5512 	push	bits
   1D2C C0 E0              5513 	push	acc
   1D2E C0 F0              5514 	push	b
   1D30 C0 82              5515 	push	dpl
   1D32 C0 83              5516 	push	dph
   1D34 C0 02              5517 	push	(0+2)
   1D36 C0 03              5518 	push	(0+3)
   1D38 C0 04              5519 	push	(0+4)
   1D3A C0 05              5520 	push	(0+5)
   1D3C C0 06              5521 	push	(0+6)
   1D3E C0 07              5522 	push	(0+7)
   1D40 C0 00              5523 	push	(0+0)
   1D42 C0 01              5524 	push	(0+1)
   1D44 C0 D0              5525 	push	psw
   1D46 75 D0 00           5526 	mov	psw,#0x00
   1D49 A2 AF              5527 	mov	c,_EA
   1D4B E4                 5528 	clr	a
   1D4C 33                 5529 	rlc	a
   1D4D FA                 5530 	mov	r2,a
   1D4E C2 AF              5531 	clr	_EA
   1D50 AB E4              5532 	mov	r3,_T1CTL
   1D52 7C 00              5533 	mov	r4,#0x00
   1D54 EB                 5534 	mov	a,r3
   1D55 30 E4 09           5535 	jnb	acc.4,00102$
   1D58 AB E4              5536 	mov	r3,_T1CTL
   1D5A 53 03 EF           5537 	anl	ar3,#0xEF
   1D5D 7C 00              5538 	mov	r4,#0x00
   1D5F 8B E4              5539 	mov	_T1CTL,r3
   1D61                    5540 00102$:
   1D61 AB E5              5541 	mov	r3,_T1CCTL0
   1D63 7C 00              5542 	mov	r4,#0x00
   1D65 EB                 5543 	mov	a,r3
   1D66 30 E6 19           5544 	jnb	acc.6,00106$
   1D69 AB E4              5545 	mov	r3,_T1CTL
   1D6B 7C 00              5546 	mov	r4,#0x00
   1D6D EB                 5547 	mov	a,r3
   1D6E 30 E5 11           5548 	jnb	acc.5,00106$
   1D71 AB E4              5549 	mov	r3,_T1CTL
   1D73 53 03 DF           5550 	anl	ar3,#0xDF
   1D76 8B E4              5551 	mov	_T1CTL,r3
   1D78 75 82 00           5552 	mov	dpl,#0x00
   1D7B C0 02              5553 	push	ar2
   1D7D 12s14r48           5554 	lcall	_SchedulerBasicP__TaskBasic__postTask
   1D80 D0 02              5555 	pop	ar2
   1D82                    5556 00106$:
   1D82 EA                 5557 	mov	a,r2
   1D83 24 FF              5558 	add	a,#0xff
   1D85 92 AF              5559 	mov	_EA,c
   1D87 D0 D0              5560 	pop	psw
   1D89 D0 01              5561 	pop	(0+1)
   1D8B D0 00              5562 	pop	(0+0)
   1D8D D0 07              5563 	pop	(0+7)
   1D8F D0 06              5564 	pop	(0+6)
   1D91 D0 05              5565 	pop	(0+5)
   1D93 D0 04              5566 	pop	(0+4)
   1D95 D0 03              5567 	pop	(0+3)
   1D97 D0 02              5568 	pop	(0+2)
   1D99 D0 83              5569 	pop	dph
   1D9B D0 82              5570 	pop	dpl
   1D9D D0 F0              5571 	pop	b
   1D9F D0 E0              5572 	pop	acc
   1DA1 D0*00              5573 	pop	bits
   1DA3 32                 5574 	reti
                           5575 ;------------------------------------------------------------
                           5576 ;Allocation info for local variables in function '__vector_0'
                           5577 ;------------------------------------------------------------
                           5578 ;_cil_inline_tmp_2313      Allocated with name '___vector_0__cil_inline_tmp_2313_1_1'
                           5579 ;------------------------------------------------------------
                           5580 ;	-----------------------------------------
                           5581 ;	 function __vector_0
                           5582 ;	-----------------------------------------
   1DA4                    5583 ___vector_0:
   1DA4 C0 E0              5584 	push	acc
   1DA6 C0 02              5585 	push	ar2
   1DA8 C0 D0              5586 	push	psw
   1DAA 75 D0 00           5587 	mov	psw,#0x00
   1DAD A2 AF              5588 	mov	c,_EA
   1DAF E4                 5589 	clr	a
   1DB0 33                 5590 	rlc	a
   1DB1 FA                 5591 	mov	r2,a
   1DB2 C2 AF              5592 	clr	_EA
   1DB4 C2 89              5593 	clr	_RFERRIF
   1DB6 75 E1 E6           5594 	mov	_RFST,#0xE6
   1DB9 75 E1 E6           5595 	mov	_RFST,#0xE6
   1DBC 75 E1 E7           5596 	mov	_RFST,#0xE7
   1DBF EA                 5597 	mov	a,r2
   1DC0 24 FF              5598 	add	a,#0xff
   1DC2 92 AF              5599 	mov	_EA,c
   1DC4 D0 D0              5600 	pop	psw
   1DC6 D0 02              5601 	pop	ar2
   1DC8 D0 E0              5602 	pop	acc
   1DCA 32                 5603 	reti
                           5604 ;	eliminated unneeded push/pop dpl
                           5605 ;	eliminated unneeded push/pop dph
                           5606 ;	eliminated unneeded push/pop b
                           5607 ;------------------------------------------------------------
                           5608 ;Allocation info for local variables in function '__vector_16'
                           5609 ;------------------------------------------------------------
                           5610 ;RFIF_RFIM                 Allocated with name '___vector_16_RFIF_RFIM_1_1'
                           5611 ;_cil_inline_tmp_2316      Allocated with name '___vector_16__cil_inline_tmp_2316_1_1'
                           5612 ;------------------------------------------------------------
                           5613 ;	-----------------------------------------
                           5614 ;	 function __vector_16
                           5615 ;	-----------------------------------------
   1DCB                    5616 ___vector_16:
   1DCB C0*00              5617 	push	bits
   1DCD C0 E0              5618 	push	acc
   1DCF C0 F0              5619 	push	b
   1DD1 C0 82              5620 	push	dpl
   1DD3 C0 83              5621 	push	dph
   1DD5 C0 02              5622 	push	(0+2)
   1DD7 C0 03              5623 	push	(0+3)
   1DD9 C0 04              5624 	push	(0+4)
   1DDB C0 05              5625 	push	(0+5)
   1DDD C0 06              5626 	push	(0+6)
   1DDF C0 07              5627 	push	(0+7)
   1DE1 C0 00              5628 	push	(0+0)
   1DE3 C0 01              5629 	push	(0+1)
   1DE5 C0 D0              5630 	push	psw
   1DE7 75 D0 00           5631 	mov	psw,#0x00
   1DEA A2 AF              5632 	mov	c,_EA
   1DEC E4                 5633 	clr	a
   1DED 33                 5634 	rlc	a
   1DEE FA                 5635 	mov	r2,a
   1DEF C2 AF              5636 	clr	_EA
   1DF1 AB E9              5637 	mov	r3,_RFIF
   1DF3 7C 00              5638 	mov	r4,#0x00
   1DF5 AD 91              5639 	mov	r5,_RFIM
   1DF7 7E 00              5640 	mov	r6,#0x00
   1DF9 ED                 5641 	mov	a,r5
   1DFA 52 03              5642 	anl	ar3,a
   1DFC EE                 5643 	mov	a,r6
   1DFD 52 04              5644 	anl	ar4,a
   1DFF 75 E9 00           5645 	mov	_RFIF,#0x00
   1E02 EB                 5646 	mov	a,r3
   1E03 30 E5 0E           5647 	jnb	acc.5,00102$
   1E06 75 82 0B           5648 	mov	dpl,#0x0B
   1E09 C0 02              5649 	push	ar2
   1E0B C0 03              5650 	push	ar3
   1E0D 12s14r48           5651 	lcall	_SchedulerBasicP__TaskBasic__postTask
   1E10 D0 03              5652 	pop	ar3
   1E12 D0 02              5653 	pop	ar2
   1E14                    5654 00102$:
   1E14 EB                 5655 	mov	a,r3
   1E15 30 E6 34           5656 	jnb	acc.6,00109$
   1E18 75 82 08           5657 	mov	dpl,#0x08
   1E1B C0 02              5658 	push	ar2
   1E1D 12s14r48           5659 	lcall	_SchedulerBasicP__TaskBasic__postTask
   1E20 D0 02              5660 	pop	ar2
   1E22 90s03r84           5661 	mov	dptr,#_HAL_CC2430ControlM__WaitACK_Flag
   1E25 E0                 5662 	movx	a,@dptr
   1E26 FB                 5663 	mov	r3,a
   1E27 BB 01 0C           5664 	cjne	r3,#0x01,00106$
   1E2A 75 82 09           5665 	mov	dpl,#0x09
   1E2D C0 02              5666 	push	ar2
   1E2F 12s14r48           5667 	lcall	_SchedulerBasicP__TaskBasic__postTask
   1E32 D0 02              5668 	pop	ar2
   1E34 80 16              5669 	sjmp	00109$
   1E36                    5670 00106$:
   1E36 90s03r83           5671 	mov	dptr,#_HAL_CC2430ControlM__transmitInProgress
   1E39 E0                 5672 	movx	a,@dptr
   1E3A FB                 5673 	mov	r3,a
   1E3B 60 0F              5674 	jz	00109$
   1E3D 90s03r83           5675 	mov	dptr,#_HAL_CC2430ControlM__transmitInProgress
   1E40 E4                 5676 	clr	a
   1E41 F0                 5677 	movx	@dptr,a
   1E42 75 82 05           5678 	mov	dpl,#0x05
   1E45 C0 02              5679 	push	ar2
   1E47 12s14r48           5680 	lcall	_SchedulerBasicP__TaskBasic__postTask
   1E4A D0 02              5681 	pop	ar2
   1E4C                    5682 00109$:
   1E4C 75 9B 00           5683 	mov	_S1CON,#0x00
   1E4F EA                 5684 	mov	a,r2
   1E50 24 FF              5685 	add	a,#0xff
   1E52 92 AF              5686 	mov	_EA,c
   1E54 D0 D0              5687 	pop	psw
   1E56 D0 01              5688 	pop	(0+1)
   1E58 D0 00              5689 	pop	(0+0)
   1E5A D0 07              5690 	pop	(0+7)
   1E5C D0 06              5691 	pop	(0+6)
   1E5E D0 05              5692 	pop	(0+5)
   1E60 D0 04              5693 	pop	(0+4)
   1E62 D0 03              5694 	pop	(0+3)
   1E64 D0 02              5695 	pop	(0+2)
   1E66 D0 83              5696 	pop	dph
   1E68 D0 82              5697 	pop	dpl
   1E6A D0 F0              5698 	pop	b
   1E6C D0 E0              5699 	pop	acc
   1E6E D0*00              5700 	pop	bits
   1E70 32                 5701 	reti
                           5702 ;------------------------------------------------------------
                           5703 ;Allocation info for local variables in function '__vector_2'
                           5704 ;------------------------------------------------------------
                           5705 ;_cil_inline_tmp_2326      Allocated with name '___vector_2__cil_inline_tmp_2326_1_1'
                           5706 ;_cil_inline_tmp_2330      Allocated with name '___vector_2__cil_inline_tmp_2330_1_1'
                           5707 ;_cil_inline_tmp_2332      Allocated with name '___vector_2__cil_inline_tmp_2332_1_1'
                           5708 ;_cil_inline_tmp_2333      Allocated with name '___vector_2__cil_inline_tmp_2333_1_1'
                           5709 ;_cil_inline_tmp_2334      Allocated with name '___vector_2__cil_inline_tmp_2334_1_1'
                           5710 ;_cil_inline_tmp_2335      Allocated with name '___vector_2__cil_inline_tmp_2335_1_1'
                           5711 ;------------------------------------------------------------
                           5712 ;	-----------------------------------------
                           5713 ;	 function __vector_2
                           5714 ;	-----------------------------------------
   1E71                    5715 ___vector_2:
   1E71 C0*00              5716 	push	bits
   1E73 C0 E0              5717 	push	acc
   1E75 C0 F0              5718 	push	b
   1E77 C0 82              5719 	push	dpl
   1E79 C0 83              5720 	push	dph
   1E7B C0 02              5721 	push	(0+2)
   1E7D C0 03              5722 	push	(0+3)
   1E7F C0 04              5723 	push	(0+4)
   1E81 C0 05              5724 	push	(0+5)
   1E83 C0 06              5725 	push	(0+6)
   1E85 C0 07              5726 	push	(0+7)
   1E87 C0 00              5727 	push	(0+0)
   1E89 C0 01              5728 	push	(0+1)
   1E8B C0 D0              5729 	push	psw
   1E8D 75 D0 00           5730 	mov	psw,#0x00
   1E90 C2 8B              5731 	clr	_URX0IF
   1E92 90s06r0E           5732 	mov	dptr,#___vector_2__cil_inline_tmp_2326_1_1
   1E95 E5 C1              5733 	mov	a,_U0BUF
   1E97 F0                 5734 	movx	@dptr,a
   1E98 90s04r08           5735 	mov	dptr,#_SerialActiveMessageP__0__NowReceiving
   1E9B E0                 5736 	movx	a,@dptr
   1E9C FA                 5737 	mov	r2,a
   1E9D 70 1B              5738 	jnz	00126$
   1E9F 90s06r0E           5739 	mov	dptr,#___vector_2__cil_inline_tmp_2326_1_1
   1EA2 E0                 5740 	movx	a,@dptr
   1EA3 FA                 5741 	mov	r2,a
   1EA4 BA 7E 02           5742 	cjne	r2,#0x7E,00142$
   1EA7 80 03              5743 	sjmp	00143$
   1EA9                    5744 00142$:
   1EA9 02s20r3F           5745 	ljmp	00128$
   1EAC                    5746 00143$:
   1EAC 90s04r08           5747 	mov	dptr,#_SerialActiveMessageP__0__NowReceiving
   1EAF 74 01              5748 	mov	a,#0x01
   1EB1 F0                 5749 	movx	@dptr,a
   1EB2 90s04r09           5750 	mov	dptr,#_SerialActiveMessageP__0__Rindex
   1EB5 E4                 5751 	clr	a
   1EB6 F0                 5752 	movx	@dptr,a
   1EB7 02s20r3F           5753 	ljmp	00128$
   1EBA                    5754 00126$:
   1EBA 90s06r0E           5755 	mov	dptr,#___vector_2__cil_inline_tmp_2326_1_1
   1EBD E0                 5756 	movx	a,@dptr
   1EBE FA                 5757 	mov	r2,a
   1EBF BA 7E 02           5758 	cjne	r2,#0x7E,00144$
   1EC2 80 03              5759 	sjmp	00145$
   1EC4                    5760 00144$:
   1EC4 02s1Fr8A           5761 	ljmp	00123$
   1EC7                    5762 00145$:
   1EC7 90s04r08           5763 	mov	dptr,#_SerialActiveMessageP__0__NowReceiving
   1ECA E4                 5764 	clr	a
   1ECB F0                 5765 	movx	@dptr,a
   1ECC 90s04r09           5766 	mov	dptr,#_SerialActiveMessageP__0__Rindex
   1ECF E0                 5767 	movx	a,@dptr
   1ED0 FB                 5768 	mov	r3,a
   1ED1 7C 00              5769 	mov	r4,#0x00
   1ED3 C3                 5770 	clr	c
   1ED4 74 07              5771 	mov	a,#0x07
   1ED6 9B                 5772 	subb	a,r3
   1ED7 E4                 5773 	clr	a
   1ED8 9C                 5774 	subb	a,r4
   1ED9 40 03              5775 	jc	00146$
   1EDB 02s20r3F           5776 	ljmp	00128$
   1EDE                    5777 00146$:
   1EDE 90s04r0B           5778 	mov	dptr,#_SerialActiveMessageP__0__RecvBuff
   1EE1 E0                 5779 	movx	a,@dptr
   1EE2 FB                 5780 	mov	r3,a
   1EE3 90s04r8A           5781 	mov	dptr,#_SerialActiveMessageP__0__RecvAckType
   1EE6 F0                 5782 	movx	@dptr,a
   1EE7 90s04r12           5783 	mov	dptr,#(_SerialActiveMessageP__0__RecvBuff + 0x0007)
   1EEA 75 F0 00           5784 	mov	b,#0x00
   1EED 12s00r00           5785 	lcall	__gptrget
   1EF0 FB                 5786 	mov  r3,a
   1EF1 24 E3              5787 	add	a,#0xff - 0x1C
   1EF3 50 03              5788 	jnc	00147$
   1EF5 02s20r3F           5789 	ljmp	00128$
   1EF8                    5790 00147$:
   1EF8 90s04r12           5791 	mov	dptr,#(_SerialActiveMessageP__0__RecvBuff + 0x0007)
   1EFB 75 F0 00           5792 	mov	b,#0x00
   1EFE 12s00r00           5793 	lcall	__gptrget
   1F01 90s05r0B           5794 	mov	dptr,#_SerialActiveMessageP__0__UartRecvMessag
   1F04 F0                 5795 	movx	@dptr,a
   1F05 90s05r0F           5796 	mov	dptr,#(_SerialActiveMessageP__0__UartRecvMessag + 0x0004)
   1F08 75 F0 00           5797 	mov	b,#0x00
   1F0B 74 22              5798 	mov	a,#0x22
   1F0D 12s00r00           5799 	lcall	__gptrput
   1F10 A3                 5800 	inc	dptr
   1F11 E4                 5801 	clr	a
   1F12 12s00r00           5802 	lcall	__gptrput
   1F15 90s04r0E           5803 	mov	dptr,#(_SerialActiveMessageP__0__RecvBuff + 0x0003)
   1F18 E0                 5804 	movx	a,@dptr
   1F19 FB                 5805 	mov	r3,a
   1F1A A3                 5806 	inc	dptr
   1F1B E0                 5807 	movx	a,@dptr
   1F1C FC                 5808 	mov	r4,a
   1F1D 90s05r11           5809 	mov	dptr,#(_SerialActiveMessageP__0__UartRecvMessag + 0x0006)
   1F20 75 F0 00           5810 	mov	b,#0x00
   1F23 EB                 5811 	mov	a,r3
   1F24 12s00r00           5812 	lcall	__gptrput
   1F27 A3                 5813 	inc	dptr
   1F28 EC                 5814 	mov	a,r4
   1F29 12s00r00           5815 	lcall	__gptrput
   1F2C 90s00r00           5816 	mov	dptr,#_TOS_NODE_ID
   1F2F E0                 5817 	movx	a,@dptr
   1F30 FB                 5818 	mov	r3,a
   1F31 A3                 5819 	inc	dptr
   1F32 E0                 5820 	movx	a,@dptr
   1F33 FC                 5821 	mov	r4,a
   1F34 90s05r13           5822 	mov	dptr,#(_SerialActiveMessageP__0__UartRecvMessag + 0x0008)
   1F37 75 F0 00           5823 	mov	b,#0x00
   1F3A EB                 5824 	mov	a,r3
   1F3B 12s00r00           5825 	lcall	__gptrput
   1F3E A3                 5826 	inc	dptr
   1F3F EC                 5827 	mov	a,r4
   1F40 12s00r00           5828 	lcall	__gptrput
   1F43 90s04r14           5829 	mov	dptr,#(_SerialActiveMessageP__0__RecvBuff + 0x0009)
   1F46 75 F0 00           5830 	mov	b,#0x00
   1F49 12s00r00           5831 	lcall	__gptrget
   1F4C FB                 5832 	mov	r3,a
   1F4D 90s05r15           5833 	mov	dptr,#(_SerialActiveMessageP__0__UartRecvMessag + 0x000a)
   1F50 75 F0 00           5834 	mov	b,#0x00
   1F53 EB                 5835 	mov	a,r3
   1F54 12s00r00           5836 	lcall	__gptrput
   1F57 90s04r12           5837 	mov	dptr,#(_SerialActiveMessageP__0__RecvBuff + 0x0007)
   1F5A 75 F0 00           5838 	mov	b,#0x00
   1F5D 12s00r00           5839 	lcall	__gptrget
   1F60 FB                 5840 	mov	r3,a
   1F61 7C 00              5841 	mov	r4,#0x00
   1F63 90s00r00           5842 	mov	dptr,#_memcpy_PARM_2
   1F66 74r15              5843 	mov	a,#(_SerialActiveMessageP__0__RecvBuff + 0x000a)
   1F68 F0                 5844 	movx	@dptr,a
   1F69 A3                 5845 	inc	dptr
   1F6A 74s04              5846 	mov	a,#((_SerialActiveMessageP__0__RecvBuff + 0x000a) >> 8)
   1F6C F0                 5847 	movx	@dptr,a
   1F6D A3                 5848 	inc	dptr
   1F6E E4                 5849 	clr	a
   1F6F F0                 5850 	movx	@dptr,a
   1F70 90s00r00           5851 	mov	dptr,#_memcpy_PARM_3
   1F73 EB                 5852 	mov	a,r3
   1F74 F0                 5853 	movx	@dptr,a
   1F75 A3                 5854 	inc	dptr
   1F76 EC                 5855 	mov	a,r4
   1F77 F0                 5856 	movx	@dptr,a
   1F78 90s05r16           5857 	mov	dptr,#(_SerialActiveMessageP__0__UartRecvMessag + 0x000b)
   1F7B 75 F0 00           5858 	mov	b,#0x00
   1F7E 12s00r00           5859 	lcall	_memcpy
   1F81 75 82 0F           5860 	mov	dpl,#0x0F
   1F84 12s14r48           5861 	lcall	_SchedulerBasicP__TaskBasic__postTask
   1F87 02s20r3F           5862 	ljmp	00128$
   1F8A                    5863 00123$:
   1F8A BA 7D 09           5864 	cjne	r2,#0x7D,00120$
   1F8D 90s04r0A           5865 	mov	dptr,#_SerialActiveMessageP__0__Escape_Flag
   1F90 74 01              5866 	mov	a,#0x01
   1F92 F0                 5867 	movx	@dptr,a
   1F93 02s20r3F           5868 	ljmp	00128$
   1F96                    5869 00120$:
   1F96 90s04r0A           5870 	mov	dptr,#_SerialActiveMessageP__0__Escape_Flag
   1F99 E0                 5871 	movx	a,@dptr
   1F9A FB                 5872 	mov	r3,a
   1F9B BB 01 02           5873 	cjne	r3,#0x01,00150$
   1F9E 80 03              5874 	sjmp	00151$
   1FA0                    5875 00150$:
   1FA0 02s20r15           5876 	ljmp	00117$
   1FA3                    5877 00151$:
   1FA3 90s04r0A           5878 	mov	dptr,#_SerialActiveMessageP__0__Escape_Flag
   1FA6 E4                 5879 	clr	a
   1FA7 F0                 5880 	movx	@dptr,a
   1FA8 BA 5D 23           5881 	cjne	r2,#0x5D,00111$
   1FAB 90s04r09           5882 	mov	dptr,#_SerialActiveMessageP__0__Rindex
   1FAE E0                 5883 	movx	a,@dptr
   1FAF FB                 5884 	mov	r3,a
   1FB0 90s06r0F           5885 	mov	dptr,#___vector_2__cil_inline_tmp_2332_1_1
   1FB3 F0                 5886 	movx	@dptr,a
   1FB4 90s04r09           5887 	mov	dptr,#_SerialActiveMessageP__0__Rindex
   1FB7 EB                 5888 	mov	a,r3
   1FB8 04                 5889 	inc	a
   1FB9 F0                 5890 	movx	@dptr,a
   1FBA 90s06r0F           5891 	mov	dptr,#___vector_2__cil_inline_tmp_2332_1_1
   1FBD E0                 5892 	movx	a,@dptr
   1FBE FB                 5893 	mov	r3,a
   1FBF 24r0B              5894 	add	a,#_SerialActiveMessageP__0__RecvBuff
   1FC1 F5 82              5895 	mov	dpl,a
   1FC3 E4                 5896 	clr	a
   1FC4 34s04              5897 	addc	a,#(_SerialActiveMessageP__0__RecvBuff >> 8)
   1FC6 F5 83              5898 	mov	dph,a
   1FC8 74 7D              5899 	mov	a,#0x7D
   1FCA F0                 5900 	movx	@dptr,a
   1FCB 02s20r3F           5901 	ljmp	00128$
   1FCE                    5902 00111$:
   1FCE BA 5E 22           5903 	cjne	r2,#0x5E,00108$
   1FD1 90s04r09           5904 	mov	dptr,#_SerialActiveMessageP__0__Rindex
   1FD4 E0                 5905 	movx	a,@dptr
   1FD5 FB                 5906 	mov	r3,a
   1FD6 90s06r10           5907 	mov	dptr,#___vector_2__cil_inline_tmp_2333_1_1
   1FD9 F0                 5908 	movx	@dptr,a
   1FDA 90s04r09           5909 	mov	dptr,#_SerialActiveMessageP__0__Rindex
   1FDD EB                 5910 	mov	a,r3
   1FDE 04                 5911 	inc	a
   1FDF F0                 5912 	movx	@dptr,a
   1FE0 90s06r10           5913 	mov	dptr,#___vector_2__cil_inline_tmp_2333_1_1
   1FE3 E0                 5914 	movx	a,@dptr
   1FE4 FB                 5915 	mov	r3,a
   1FE5 24r0B              5916 	add	a,#_SerialActiveMessageP__0__RecvBuff
   1FE7 F5 82              5917 	mov	dpl,a
   1FE9 E4                 5918 	clr	a
   1FEA 34s04              5919 	addc	a,#(_SerialActiveMessageP__0__RecvBuff >> 8)
   1FEC F5 83              5920 	mov	dph,a
   1FEE 74 7E              5921 	mov	a,#0x7E
   1FF0 F0                 5922 	movx	@dptr,a
   1FF1 80 4C              5923 	sjmp	00128$
   1FF3                    5924 00108$:
   1FF3 90s04r09           5925 	mov	dptr,#_SerialActiveMessageP__0__Rindex
   1FF6 E0                 5926 	movx	a,@dptr
   1FF7 FB                 5927 	mov	r3,a
   1FF8 90s06r11           5928 	mov	dptr,#___vector_2__cil_inline_tmp_2334_1_1
   1FFB F0                 5929 	movx	@dptr,a
   1FFC 90s04r09           5930 	mov	dptr,#_SerialActiveMessageP__0__Rindex
   1FFF EB                 5931 	mov	a,r3
   2000 04                 5932 	inc	a
   2001 F0                 5933 	movx	@dptr,a
   2002 90s06r11           5934 	mov	dptr,#___vector_2__cil_inline_tmp_2334_1_1
   2005 E0                 5935 	movx	a,@dptr
   2006 FB                 5936 	mov	r3,a
   2007 24r0B              5937 	add	a,#_SerialActiveMessageP__0__RecvBuff
   2009 F5 82              5938 	mov	dpl,a
   200B E4                 5939 	clr	a
   200C 34s04              5940 	addc	a,#(_SerialActiveMessageP__0__RecvBuff >> 8)
   200E F5 83              5941 	mov	dph,a
   2010 74 7D              5942 	mov	a,#0x7D
   2012 F0                 5943 	movx	@dptr,a
   2013 80 2A              5944 	sjmp	00128$
   2015                    5945 00117$:
   2015 90s04r09           5946 	mov	dptr,#_SerialActiveMessageP__0__Rindex
   2018 E0                 5947 	movx	a,@dptr
   2019 FB                 5948 	mov	r3,a
   201A BB 7F 07           5949 	cjne	r3,#0x7F,00114$
   201D 90s04r08           5950 	mov	dptr,#_SerialActiveMessageP__0__NowReceiving
   2020 E4                 5951 	clr	a
   2021 F0                 5952 	movx	@dptr,a
   2022 80 1B              5953 	sjmp	00128$
   2024                    5954 00114$:
   2024 90s06r12           5955 	mov	dptr,#___vector_2__cil_inline_tmp_2335_1_1
   2027 EB                 5956 	mov	a,r3
   2028 F0                 5957 	movx	@dptr,a
   2029 90s04r09           5958 	mov	dptr,#_SerialActiveMessageP__0__Rindex
   202C EB                 5959 	mov	a,r3
   202D 04                 5960 	inc	a
   202E F0                 5961 	movx	@dptr,a
   202F 90s06r12           5962 	mov	dptr,#___vector_2__cil_inline_tmp_2335_1_1
   2032 E0                 5963 	movx	a,@dptr
   2033 FB                 5964 	mov	r3,a
   2034 24r0B              5965 	add	a,#_SerialActiveMessageP__0__RecvBuff
   2036 F5 82              5966 	mov	dpl,a
   2038 E4                 5967 	clr	a
   2039 34s04              5968 	addc	a,#(_SerialActiveMessageP__0__RecvBuff >> 8)
   203B F5 83              5969 	mov	dph,a
   203D EA                 5970 	mov	a,r2
   203E F0                 5971 	movx	@dptr,a
   203F                    5972 00128$:
   203F D0 D0              5973 	pop	psw
   2041 D0 01              5974 	pop	(0+1)
   2043 D0 00              5975 	pop	(0+0)
   2045 D0 07              5976 	pop	(0+7)
   2047 D0 06              5977 	pop	(0+6)
   2049 D0 05              5978 	pop	(0+5)
   204B D0 04              5979 	pop	(0+4)
   204D D0 03              5980 	pop	(0+3)
   204F D0 02              5981 	pop	(0+2)
   2051 D0 83              5982 	pop	dph
   2053 D0 82              5983 	pop	dpl
   2055 D0 F0              5984 	pop	b
   2057 D0 E0              5985 	pop	acc
   2059 D0*00              5986 	pop	bits
   205B 32                 5987 	reti
                           5988 ;------------------------------------------------------------
                           5989 ;Allocation info for local variables in function '__vector_7'
                           5990 ;------------------------------------------------------------
                           5991 ;_cil_inline_tmp_2339      Allocated with name '___vector_7__cil_inline_tmp_2339_1_1'
                           5992 ;------------------------------------------------------------
                           5993 ;	-----------------------------------------
                           5994 ;	 function __vector_7
                           5995 ;	-----------------------------------------
   205C                    5996 ___vector_7:
   205C C0*00              5997 	push	bits
   205E C0 E0              5998 	push	acc
   2060 C0 F0              5999 	push	b
   2062 C0 82              6000 	push	dpl
   2064 C0 83              6001 	push	dph
   2066 C0 02              6002 	push	(0+2)
   2068 C0 03              6003 	push	(0+3)
   206A C0 04              6004 	push	(0+4)
   206C C0 05              6005 	push	(0+5)
   206E C0 06              6006 	push	(0+6)
   2070 C0 07              6007 	push	(0+7)
   2072 C0 00              6008 	push	(0+0)
   2074 C0 01              6009 	push	(0+1)
   2076 C0 D0              6010 	push	psw
   2078 75 D0 00           6011 	mov	psw,#0x00
   207B AA 86              6012 	mov	r2,_U0CSR
   207D 7B 00              6013 	mov	r3,#0x00
   207F EA                 6014 	mov	a,r2
   2080 30 E0 03           6015 	jnb	acc.0,00119$
   2083 02s21r05           6016 	ljmp	00111$
   2086                    6017 00119$:
   2086 C2 E9              6018 	clr	_UTX0IF
   2088 90s00r03           6019 	mov	dptr,#_SCSuartDBGM__buff_start
   208B E0                 6020 	movx	a,@dptr
   208C FA                 6021 	mov	r2,a
   208D A3                 6022 	inc	dptr
   208E E0                 6023 	movx	a,@dptr
   208F FB                 6024 	mov	r3,a
   2090 90s00r03           6025 	mov	dptr,#_SCSuartDBGM__buff_start
   2093 74 01              6026 	mov	a,#0x01
   2095 2A                 6027 	add	a,r2
   2096 F0                 6028 	movx	@dptr,a
   2097 E4                 6029 	clr	a
   2098 3B                 6030 	addc	a,r3
   2099 A3                 6031 	inc	dptr
   209A F0                 6032 	movx	@dptr,a
   209B 90s00r03           6033 	mov	dptr,#_SCSuartDBGM__buff_start
   209E E0                 6034 	movx	a,@dptr
   209F FA                 6035 	mov	r2,a
   20A0 A3                 6036 	inc	dptr
   20A1 E0                 6037 	movx	a,@dptr
   20A2 FB                 6038 	mov	r3,a
   20A3 C3                 6039 	clr	c
   20A4 74 7E              6040 	mov	a,#0x7E
   20A6 9A                 6041 	subb	a,r2
   20A7 E4                 6042 	clr	a
   20A8 9B                 6043 	subb	a,r3
   20A9 50 07              6044 	jnc	00102$
   20AB 90s00r03           6045 	mov	dptr,#_SCSuartDBGM__buff_start
   20AE E4                 6046 	clr	a
   20AF F0                 6047 	movx	@dptr,a
   20B0 A3                 6048 	inc	dptr
   20B1 F0                 6049 	movx	@dptr,a
   20B2                    6050 00102$:
   20B2 90s00r05           6051 	mov	dptr,#_SCSuartDBGM__buff_end
   20B5 E0                 6052 	movx	a,@dptr
   20B6 FA                 6053 	mov	r2,a
   20B7 A3                 6054 	inc	dptr
   20B8 E0                 6055 	movx	a,@dptr
   20B9 FB                 6056 	mov	r3,a
   20BA C3                 6057 	clr	c
   20BB 74 7E              6058 	mov	a,#0x7E
   20BD 9A                 6059 	subb	a,r2
   20BE E4                 6060 	clr	a
   20BF 9B                 6061 	subb	a,r3
   20C0 50 07              6062 	jnc	00104$
   20C2 90s00r05           6063 	mov	dptr,#_SCSuartDBGM__buff_end
   20C5 E4                 6064 	clr	a
   20C6 F0                 6065 	movx	@dptr,a
   20C7 A3                 6066 	inc	dptr
   20C8 F0                 6067 	movx	@dptr,a
   20C9                    6068 00104$:
   20C9 90s00r03           6069 	mov	dptr,#_SCSuartDBGM__buff_start
   20CC E0                 6070 	movx	a,@dptr
   20CD FA                 6071 	mov	r2,a
   20CE A3                 6072 	inc	dptr
   20CF E0                 6073 	movx	a,@dptr
   20D0 FB                 6074 	mov	r3,a
   20D1 90s00r05           6075 	mov	dptr,#_SCSuartDBGM__buff_end
   20D4 E0                 6076 	movx	a,@dptr
   20D5 FC                 6077 	mov	r4,a
   20D6 A3                 6078 	inc	dptr
   20D7 E0                 6079 	movx	a,@dptr
   20D8 FD                 6080 	mov	r5,a
   20D9 EA                 6081 	mov	a,r2
   20DA B5 04 06           6082 	cjne	a,ar4,00122$
   20DD EB                 6083 	mov	a,r3
   20DE B5 05 02           6084 	cjne	a,ar5,00122$
   20E1 80 0F              6085 	sjmp	00108$
   20E3                    6086 00122$:
   20E3 EA                 6087 	mov	a,r2
   20E4 24r86              6088 	add	a,#_SCSuartDBGM__str_buff
   20E6 F5 82              6089 	mov	dpl,a
   20E8 EB                 6090 	mov	a,r3
   20E9 34s03              6091 	addc	a,#(_SCSuartDBGM__str_buff >> 8)
   20EB F5 83              6092 	mov	dph,a
   20ED E0                 6093 	movx	a,@dptr
   20EE F5 C1              6094 	mov	_U0BUF,a
   20F0 80 13              6095 	sjmp	00111$
   20F2                    6096 00108$:
   20F2 90s00r02           6097 	mov	dptr,#_SCSuartDBGM__state
   20F5 E4                 6098 	clr	a
   20F6 F0                 6099 	movx	@dptr,a
   20F7 90s05r0A           6100 	mov	dptr,#_SerialActiveMessageP__0__SendProcessing
   20FA E0                 6101 	movx	a,@dptr
   20FB FA                 6102 	mov	r2,a
   20FC BA 01 06           6103 	cjne	r2,#0x01,00111$
   20FF 75 82 0E           6104 	mov	dpl,#0x0E
   2102 12s14r48           6105 	lcall	_SchedulerBasicP__TaskBasic__postTask
   2105                    6106 00111$:
   2105 D0 D0              6107 	pop	psw
   2107 D0 01              6108 	pop	(0+1)
   2109 D0 00              6109 	pop	(0+0)
   210B D0 07              6110 	pop	(0+7)
   210D D0 06              6111 	pop	(0+6)
   210F D0 05              6112 	pop	(0+5)
   2111 D0 04              6113 	pop	(0+4)
   2113 D0 03              6114 	pop	(0+3)
   2115 D0 02              6115 	pop	(0+2)
   2117 D0 83              6116 	pop	dph
   2119 D0 82              6117 	pop	dpl
   211B D0 F0              6118 	pop	b
   211D D0 E0              6119 	pop	acc
   211F D0*00              6120 	pop	bits
   2121 32                 6121 	reti
                           6122 ;------------------------------------------------------------
                           6123 ;Allocation info for local variables in function '__vector_3'
                           6124 ;------------------------------------------------------------
                           6125 ;_cil_inline_tmp_2345      Allocated with name '___vector_3__cil_inline_tmp_2345_1_1'
                           6126 ;------------------------------------------------------------
                           6127 ;	-----------------------------------------
                           6128 ;	 function __vector_3
                           6129 ;	-----------------------------------------
   2122                    6130 ___vector_3:
   2122 C0 E0              6131 	push	acc
   2124 C2 8F              6132 	clr	_URX1IF
   2126 E5 F9              6133 	mov	a,_U1DBUF
   2128 D0 E0              6134 	pop	acc
   212A 32                 6135 	reti
                           6136 ;	eliminated unneeded push/pop psw
                           6137 ;	eliminated unneeded push/pop dpl
                           6138 ;	eliminated unneeded push/pop dph
                           6139 ;	eliminated unneeded push/pop b
                           6140 ;------------------------------------------------------------
                           6141 ;Allocation info for local variables in function '__vector_14'
                           6142 ;------------------------------------------------------------
                           6143 ;------------------------------------------------------------
                           6144 ;	-----------------------------------------
                           6145 ;	 function __vector_14
                           6146 ;	-----------------------------------------
   212B                    6147 ___vector_14:
   212B C0 E0              6148 	push	acc
   212D C0 02              6149 	push	ar2
   212F C0 03              6150 	push	ar3
   2131 AA F8              6151 	mov	r2,_U1CSR
   2133 7B 00              6152 	mov	r3,#0x00
   2135 EA                 6153 	mov	a,r2
   2136 20 E0 02           6154 	jb	acc.0,00102$
   2139 C2 EA              6155 	clr	_UTX1IF
   213B                    6156 00102$:
   213B D0 03              6157 	pop	ar3
   213D D0 02              6158 	pop	ar2
   213F D0 E0              6159 	pop	acc
   2141 32                 6160 	reti
                           6161 ;	eliminated unneeded push/pop psw
                           6162 ;	eliminated unneeded push/pop dpl
                           6163 ;	eliminated unneeded push/pop dph
                           6164 ;	eliminated unneeded push/pop b
                           6165 ;------------------------------------------------------------
                           6166 ;Allocation info for local variables in function '__vector_11'
                           6167 ;------------------------------------------------------------
                           6168 ;------------------------------------------------------------
                           6169 ;	-----------------------------------------
                           6170 ;	 function __vector_11
                           6171 ;	-----------------------------------------
   2142                    6172 ___vector_11:
   2142 C0*00              6173 	push	bits
   2144 C0 E0              6174 	push	acc
   2146 C0 F0              6175 	push	b
   2148 C0 82              6176 	push	dpl
   214A C0 83              6177 	push	dph
   214C C0 02              6178 	push	(0+2)
   214E C0 03              6179 	push	(0+3)
   2150 C0 04              6180 	push	(0+4)
   2152 C0 05              6181 	push	(0+5)
   2154 C0 06              6182 	push	(0+6)
   2156 C0 07              6183 	push	(0+7)
   2158 C0 00              6184 	push	(0+0)
   215A C0 01              6185 	push	(0+1)
   215C C0 D0              6186 	push	psw
   215E 75 D0 00           6187 	mov	psw,#0x00
   2161 AA CC              6188 	mov	r2,_T3CCTL0
   2163 7B 00              6189 	mov	r3,#0x00
   2165 EA                 6190 	mov	a,r2
   2166 30 E2 14           6191 	jnb	acc.2,00104$
   2169 10 D9 02           6192 	jbc	_T3CH0IF,00110$
   216C 80 0F              6193 	sjmp	00104$
   216E                    6194 00110$:
   216E C2 BB              6195 	clr	_T3IE
   2170 AA CB              6196 	mov	r2,_T3CTL
   2172 53 02 EF           6197 	anl	ar2,#0xEF
   2175 8A CB              6198 	mov	_T3CTL,r2
   2177 75 82 0C           6199 	mov	dpl,#0x0C
   217A 12s14r48           6200 	lcall	_SchedulerBasicP__TaskBasic__postTask
   217D                    6201 00104$:
   217D D0 D0              6202 	pop	psw
   217F D0 01              6203 	pop	(0+1)
   2181 D0 00              6204 	pop	(0+0)
   2183 D0 07              6205 	pop	(0+7)
   2185 D0 06              6206 	pop	(0+6)
   2187 D0 05              6207 	pop	(0+5)
   2189 D0 04              6208 	pop	(0+4)
   218B D0 03              6209 	pop	(0+3)
   218D D0 02              6210 	pop	(0+2)
   218F D0 83              6211 	pop	dph
   2191 D0 82              6212 	pop	dpl
   2193 D0 F0              6213 	pop	b
   2195 D0 E0              6214 	pop	acc
   2197 D0*00              6215 	pop	bits
   2199 32                 6216 	reti
                           6217 	.area CSEG    (CODE)
                           6218 	.area CONST   (CODE)
                           6219 	.area XINIT   (CODE)
   0000                    6220 __xinit__TOS_NODE_ID:
   0000 01 00              6221 	.byte #0x01,#0x00
   0002                    6222 __xinit__SCSuartDBGM__state:
   0002 00                 6223 	.db #0x00
   0003                    6224 __xinit__SCSuartDBGM__buff_start:
   0003 00 00              6225 	.byte #0x00,#0x00
   0005                    6226 __xinit__SCSuartDBGM__buff_end:
   0005 00 00              6227 	.byte #0x00,#0x00
   0007                    6228 __xinit__AMQueueImplP__0__current:
   0007 FF                 6229 	.db #0xFF
                           6230 	.area CABS    (ABS,CODE)
